

Microchip MPLAB XC8 Assembler V2.36 build 20220127204148 
                                                                                               Fri Jan 19 00:27:56 2024

Microchip MPLAB XC8 C Compiler v2.36 (Free license) build 20220127204148 Og1 
     1                           	processor	18F26Q84
     2                           	fnconf	rparam,??,?,0
     3                           	pagewidth 120
     4                           	opt	flic
     5                           	psect	idataCOMRAM,global,class=CODE,delta=1,noexec
     6                           	psect	cinit,global,reloc=2,class=CODE,delta=1
     7                           	psect	bssCOMRAM,global,class=COMRAM,space=1,delta=1,lowdata,noexec
     8                           	psect	dataCOMRAM,global,class=COMRAM,space=1,delta=1,lowdata,noexec
     9                           	psect	bssBIGRAM,global,class=BIGRAM,space=1,delta=1,noexec
    10                           	psect	cstackCOMRAM,global,class=COMRAM,space=1,delta=1,lowdata,noexec
    11                           	psect	text0,global,reloc=2,class=CODE,delta=1
    12                           	psect	text1,global,reloc=2,class=CODE,delta=1
    13                           	psect	text2,global,reloc=2,class=CODE,delta=1
    14                           	psect	text3,global,reloc=2,class=CODE,delta=1
    15                           	psect	text4,global,reloc=2,class=CODE,delta=1
    16                           	psect	text5,global,reloc=2,class=CODE,delta=1
    17                           	psect	text6,global,reloc=2,class=CODE,delta=1
    18                           	psect	text7,global,reloc=2,class=CODE,delta=1
    19                           	psect	text8,global,reloc=2,class=CODE,delta=1
    20                           	psect	text9,global,reloc=2,class=CODE,delta=1
    21                           	psect	text10,global,reloc=2,class=CODE,delta=1
    22                           	psect	text11,global,reloc=2,class=CODE,delta=1
    23                           	psect	text12,global,reloc=2,class=CODE,delta=1
    24                           	psect	text13,global,reloc=2,class=CODE,delta=1
    25                           	psect	intsave_regs,global,class=BIGRAM,space=1,delta=1,noexec
    26                           	psect	text14,global,reloc=2,class=CODE,delta=1
    27                           	psect	rparam,global,class=COMRAM,space=1,delta=1,noexec
    28                           	psect	idloc,global,abs,ovrld,class=IDLOC,space=5,delta=1,noexec
    29                           	psect	config,global,abs,ovrld,class=CONFIG,space=4,delta=1,noexec
    30  0000                     
    31                           ; Version 2.40
    32                           ; Generated 08/12/2021 GMT
    33                           ; 
    34                           ; Copyright © 2021, Microchip Technology Inc. and its subsidiaries ("Microchip")
    35                           ; All rights reserved.
    36                           ; 
    37                           ; This software is developed by Microchip Technology Inc. and its subsidiaries ("Microch
      +                          ip").
    38                           ; 
    39                           ; Redistribution and use in source and binary forms, with or without modification, are
    40                           ; permitted provided that the following conditions are met:
    41                           ; 
    42                           ;     1. Redistributions of source code must retain the above copyright notice, this lis
      +                          t of
    43                           ;        conditions and the following disclaimer.
    44                           ; 
    45                           ;     2. Redistributions in binary form must reproduce the above copyright notice, this 
      +                          list
    46                           ;        of conditions and the following disclaimer in the documentation and/or other
    47                           ;        materials provided with the distribution. Publication is not required when
    48                           ;        this file is used in an embedded application.
    49                           ; 
    50                           ;     3. Microchip's name may not be used to endorse or promote products derived from th
      +                          is
    51                           ;        software without specific prior written permission.
    52                           ; 
    53                           ; THIS SOFTWARE IS PROVIDED BY MICROCHIP "AS IS" AND ANY EXPRESS OR IMPLIED WARRANTIES,
    54                           ; INCLUDING, BUT NOT LIMITED TO, THE IMPLIED WARRANTIES OF MERCHANTABILITY AND FITNESS F
      +                          OR
    55                           ; PURPOSE ARE DISCLAIMED.  IN NO EVENT SHALL MICROCHIP BE LIABLE FOR ANY DIRECT, INDIREC
      +                          T,
    56                           ; INCIDENTAL, SPECIAL, EXEMPLARY, OR CONSEQUENTIAL DAMAGES (INCLUDING BUT NOT LIMITED TO
    57                           ; PROCUREMENT OF SUBSTITUTE GOODS OR SERVICES; LOSS OF USE, DATA OR PROFITS; OR BUSINESS
    58                           ; INTERRUPTION) HOWSOEVER CAUSED AND ON ANY THEORY OF LIABILITY, WHETHER IN CONTRACT, ST
      +                          RICT
    59                           ; LIABILITY, OR TORT (INCLUDING NEGLIGENCE OR OTHERWISE) ARISING IN ANY WAY OUT OF THE U
      +                          SE OF
    60                           ; THIS SOFTWARE, EVEN IF ADVISED OF THE POSSIBILITY OF SUCH DAMAGE.
    61                           ; 
    62                           ; 
    63                           ; Code-generator required, PIC18F26Q84 Definitions
    64                           ; 
    65                           ; SFR Addresses
    66  0000                     
    67                           	psect	idataCOMRAM
    68  00DE0E                     __pidataCOMRAM:
    69                           	callstack 0
    70                           
    71                           ;initializer for _port2_send1bit
    72  00DE0E  3A                 	db	low _port2_zero
    73  00DE0F  DE                 	db	high _port2_zero
    74  00DE10  6E                 	db	low _port2_one
    75  00DE11  DE                 	db	high _port2_one
    76                           
    77                           ;initializer for _port1_send1bit
    78  00DE12  24                 	db	low _port1_zero
    79  00DE13  DE                 	db	high _port1_zero
    80  00DE14  50                 	db	low _port1_one
    81  00DE15  DE                 	db	high _port1_one
    82  0000                     _OSCTUNE	set	176
    83  0000                     _OSCFRQ	set	177
    84  0000                     _OSCEN	set	179
    85  0000                     _PLLR	set	1424
    86  0000                     _TRISAbits	set	1222
    87  0000                     _TRISCbits	set	1224
    88  0000                     _LATCbits	set	1216
    89  0000                     _PMD0	set	96
    90  0000                     _OSCCON1	set	173
    91  0000                     _ANSELA	set	1024
    92  0000                     _ANSELB	set	1032
    93  0000                     _ANSELC	set	1040
    94  0000                     _LATA	set	1214
    95  0000                     _TRISA	set	1222
    96  0000                     _TRISE	set	1226
    97  0000                     _LATC	set	1216
    98  0000                     _LATB	set	1215
    99  0000                     _PORTAbits	set	1230
   100  0000                     _TRISC	set	1224
   101  0000                     _TRISB	set	1223
   102  0000                     _INLVLC	set	1044
   103  0000                     _SLRCONC	set	1043
   104  0000                     _ODCONC	set	1042
   105  0000                     _WPUC	set	1041
   106  0000                     _WPUE	set	1057
   107  0000                     _INLVLB	set	1036
   108  0000                     _SLRCONB	set	1035
   109  0000                     _ODCONB	set	1034
   110  0000                     _WPUB	set	1033
   111  0000                     _INLVLA	set	1028
   112  0000                     _SLRCONA	set	1027
   113  0000                     _ODCONA	set	1026
   114  0000                     _WPUA	set	1025
   115  0000                     _INLVLE	set	1060
   116  0000                     _OSCCON3	set	175
   117  0000                     _PMD8	set	104
   118  0000                     _PMD7	set	103
   119  0000                     _PMD6	set	102
   120  0000                     _PMD5	set	101
   121  0000                     _PMD4	set	100
   122  0000                     _PMD3	set	99
   123  0000                     _PMD2	set	98
   124  0000                     _PMD1	set	97
   125                           
   126                           ; #config settings
   127                           
   128                           	psect	cinit
   129  00DEDA                     __pcinit:
   130                           	callstack 0
   131  00DEDA                     start_initialization:
   132                           	callstack 0
   133  00DEDA                     __initialization:
   134                           	callstack 0
   135                           
   136                           ; Initialize objects allocated to COMRAM (8 bytes)
   137                           ; load TBLPTR registers with __pidataCOMRAM
   138  00DEDA  0E0E               	movlw	low __pidataCOMRAM
   139  00DEDC  6EF6               	movwf	tblptrl,c
   140  00DEDE  0EDE               	movlw	high __pidataCOMRAM
   141  00DEE0  6EF7               	movwf	tblptrh,c
   142  00DEE2  0E00               	movlw	low (__pidataCOMRAM shr (0+16))
   143  00DEE4  6EF8               	movwf	tblptru,c
   144  00DEE6  EE01  F131         	lfsr	0,__pdataCOMRAM
   145  00DEEA  EE10 F008          	lfsr	1,8
   146  00DEEE                     copy_data0:
   147  00DEEE  0009               	tblrd		*+
   148  00DEF0  C4F5 F4EE          	movff	tablat,postinc0
   149  00DEF4  50E5               	movf	postdec1,w,c
   150  00DEF6  50E1               	movf	fsr1l,w,c
   151  00DEF8  E1FA               	bnz	copy_data0
   152                           
   153                           ; Clear objects allocated to BIGRAM (960 bytes)
   154  00DEFA  EE08  F140         	lfsr	0,__pbssBIGRAM
   155  00DEFE  EE10 F3C0          	lfsr	1,960
   156  00DF02                     clear_0:
   157  00DF02  6AEE               	clrf	postinc0,c
   158  00DF04  50E5               	movf	postdec1,w,c
   159  00DF06  50E1               	movf	fsr1l,w,c
   160  00DF08  E1FC               	bnz	clear_0
   161  00DF0A  50E2               	movf	fsr1h,w,c
   162  00DF0C  E1FA               	bnz	clear_0
   163                           
   164                           ; Clear objects allocated to COMRAM (9 bytes)
   165  00DF0E  EE01  F128         	lfsr	0,__pbssCOMRAM
   166  00DF12  0E09               	movlw	9
   167  00DF14                     clear_1:
   168  00DF14  6AEE               	clrf	postinc0,c
   169  00DF16  06E8               	decf	wreg,f,c
   170  00DF18  E1FD               	bnz	clear_1
   171  00DF1A                     end_of_initialization:
   172                           	callstack 0
   173  00DF1A                     __end_of__initialization:
   174                           	callstack 0
   175  00DF1A  0E00               	movlw	low (__Lmediumconst shr (0+16))
   176  00DF1C  6EF8               	movwf	tblptru,c
   177  00DF1E  0100               	movlb	0
   178  00DF20  EFB9  F06F         	goto	_main	;jump to C main() function
   179                           
   180                           	psect	bssCOMRAM
   181  000528                     __pbssCOMRAM:
   182                           	callstack 0
   183  000528                     _nanntoka:
   184                           	callstack 0
   185  000528                     	ds	2
   186  00052A                     _MOVE:
   187                           	callstack 0
   188  00052A                     	ds	2
   189  00052C                     _MODE:
   190                           	callstack 0
   191  00052C                     	ds	2
   192  00052E                     _b:
   193                           	callstack 0
   194  00052E                     	ds	1
   195  00052F                     _g:
   196                           	callstack 0
   197  00052F                     	ds	1
   198  000530                     _r:
   199                           	callstack 0
   200  000530                     	ds	1
   201                           
   202                           	psect	dataCOMRAM
   203  000531                     __pdataCOMRAM:
   204                           	callstack 0
   205  000531                     _port2_send1bit:
   206                           	callstack 0
   207  000531                     	ds	4
   208  000535                     _port1_send1bit:
   209                           	callstack 0
   210  000535                     	ds	4
   211                           
   212                           	psect	bssBIGRAM
   213  002140                     __pbssBIGRAM:
   214                           	callstack 0
   215  002140                     _RGB:
   216                           	callstack 0
   217  002140                     	ds	960
   218                           
   219                           	psect	cstackCOMRAM
   220  000501                     __pcstackCOMRAM:
   221                           	callstack 0
   222  000501                     port1_send3byte@R:
   223                           	callstack 0
   224  000501                     port2_send3byte@R:
   225                           	callstack 0
   226                           
   227                           ; 2 bytes @ 0x0
   228  000501                     	ds	2
   229  000503                     port1_send3byte@G:
   230                           	callstack 0
   231  000503                     port2_send3byte@G:
   232                           	callstack 0
   233                           
   234                           ; 2 bytes @ 0x2
   235  000503                     	ds	2
   236  000505                     port1_send3byte@B:
   237                           	callstack 0
   238  000505                     port2_send3byte@B:
   239                           	callstack 0
   240                           
   241                           ; 2 bytes @ 0x4
   242  000505                     	ds	2
   243  000507                     ??_port1_send3byte:
   244  000507                     ??_port2_send3byte:
   245                           
   246                           ; 1 bytes @ 0x6
   247  000507                     	ds	1
   248  000508                     ??_Red:
   249  000508                     ??_Blue:
   250  000508                     ??_Gaming:
   251                           
   252                           ; 1 bytes @ 0x7
   253  000508                     	ds	2
   254  00050A                     Red@i:
   255                           	callstack 0
   256  00050A                     Blue@i:
   257                           	callstack 0
   258  00050A                     Gaming@i:
   259                           	callstack 0
   260                           
   261                           ; 2 bytes @ 0x9
   262  00050A                     	ds	2
   263  00050C                     Red@i_280:
   264                           	callstack 0
   265  00050C                     Blue@i_286:
   266                           	callstack 0
   267  00050C                     Gaming@i_291:
   268                           	callstack 0
   269                           
   270                           ; 2 bytes @ 0xB
   271  00050C                     	ds	2
   272  00050E                     Red@i_282:
   273                           	callstack 0
   274  00050E                     Blue@i_287:
   275                           	callstack 0
   276  00050E                     Gaming@i_292:
   277                           	callstack 0
   278                           
   279                           ; 2 bytes @ 0xD
   280  00050E                     	ds	2
   281  000510                     Red@i_283:
   282                           	callstack 0
   283  000510                     Blue@i_288:
   284                           	callstack 0
   285  000510                     Gaming@i_293:
   286                           	callstack 0
   287                           
   288                           ; 2 bytes @ 0xF
   289  000510                     	ds	2
   290  000512                     Gaming@i_294:
   291                           	callstack 0
   292                           
   293                           ; 2 bytes @ 0x11
   294  000512                     	ds	2
   295  000514                     Gaming@i_295:
   296                           	callstack 0
   297                           
   298                           ; 2 bytes @ 0x13
   299  000514                     	ds	2
   300  000516                     Gaming@i_296:
   301                           	callstack 0
   302                           
   303                           ; 2 bytes @ 0x15
   304  000516                     	ds	2
   305  000518                     Gaming@i_297:
   306                           	callstack 0
   307                           
   308                           ; 2 bytes @ 0x17
   309  000518                     	ds	2
   310  00051A                     Gaming@i_298:
   311                           	callstack 0
   312                           
   313                           ; 2 bytes @ 0x19
   314  00051A                     	ds	2
   315  00051C                     Gaming@i_299:
   316                           	callstack 0
   317                           
   318                           ; 2 bytes @ 0x1B
   319  00051C                     	ds	2
   320  00051E                     Gaming@i_300:
   321                           	callstack 0
   322                           
   323                           ; 2 bytes @ 0x1D
   324  00051E                     	ds	2
   325  000520                     Gaming@i_301:
   326                           	callstack 0
   327                           
   328                           ; 2 bytes @ 0x1F
   329  000520                     	ds	2
   330  000522                     Gaming@i_302:
   331                           	callstack 0
   332                           
   333                           ; 2 bytes @ 0x21
   334  000522                     	ds	2
   335  000524                     Gaming@i_303:
   336                           	callstack 0
   337                           
   338                           ; 2 bytes @ 0x23
   339  000524                     	ds	2
   340  000526                     ??_main:
   341                           
   342                           ; 1 bytes @ 0x25
   343  000526                     	ds	2
   344                           
   345 ;;
   346 ;;Main: autosize = 0, tempsize = 2, incstack = 0, save=0
   347 ;;
   348 ;; *************** function _main *****************
   349 ;; Defined at:
   350 ;;		line 444 in file "main.c"
   351 ;; Parameters:    Size  Location     Type
   352 ;;		None
   353 ;; Auto vars:     Size  Location     Type
   354 ;;		None
   355 ;; Return value:  Size  Location     Type
   356 ;;                  1    wreg      void 
   357 ;; Registers used:
   358 ;;		wreg, fsr2l, fsr2h, status,2, status,0, pcl, pclath, pclatu, tosl, prodl, prodh, cstack
   359 ;; Tracked objects:
   360 ;;		On entry : 0/0
   361 ;;		On exit  : 0/0
   362 ;;		Unchanged: 0/0
   363 ;; Data sizes:     COMRAM   BANK5   BANK6   BANK7   BANK8   BANK9  BANK10  BANK11  BANK12  BANK13  BANK14  BANK15  BANK1
      +6  BANK17  BANK18  BANK19  BANK20  BANK21  BANK22  BANK23  BANK24  BANK25  BANK26  BANK27  BANK28  BANK29  BANK30  BANK3
      +1  BANK32  BANK33  BANK34  BANK35  BANK36
   364 ;;      Params:         0       0       0       0       0       0       0       0       0       0       0       0       
      +0       0       0       0       0       0       0       0       0       0       0       0       0       0       0       
      +0       0       0       0       0       0
   365 ;;      Locals:         0       0       0       0       0       0       0       0       0       0       0       0       
      +0       0       0       0       0       0       0       0       0       0       0       0       0       0       0       
      +0       0       0       0       0       0
   366 ;;      Temps:          2       0       0       0       0       0       0       0       0       0       0       0       
      +0       0       0       0       0       0       0       0       0       0       0       0       0       0       0       
      +0       0       0       0       0       0
   367 ;;      Totals:         2       0       0       0       0       0       0       0       0       0       0       0       
      +0       0       0       0       0       0       0       0       0       0       0       0       0       0       0       
      +0       0       0       0       0       0
   368 ;;Total ram usage:        2 bytes
   369 ;; Hardware stack levels required when called: 3
   370 ;; This function calls:
   371 ;;		_Blue
   372 ;;		_Gaming
   373 ;;		_Red
   374 ;;		_SYSTEM_Initialize
   375 ;; This function is called by:
   376 ;;		Startup code after reset
   377 ;; This function uses a non-reentrant model
   378 ;;
   379                           
   380                           	psect	text0
   381  00DF72                     __ptext0:
   382                           	callstack 0
   383  00DF72                     _main:
   384                           	callstack 124
   385  00DF72                     
   386                           ;main.c: 446:     SYSTEM_Initialize();
   387  00DF72  EC0B  F06F         	call	_SYSTEM_Initialize	;wreg free
   388  00DF76                     
   389                           ;main.c: 455:     TRISCbits.TRISC4 = 0;
   390  00DF76  98C8               	bcf	200,4,c	;volatile
   391  00DF78                     
   392                           ;main.c: 456:     TRISCbits.TRISC6 = 0;
   393  00DF78  9CC8               	bcf	200,6,c	;volatile
   394  00DF7A                     
   395                           ;main.c: 457:     TRISCbits.TRISC5 = 0;
   396  00DF7A  9AC8               	bcf	200,5,c	;volatile
   397  00DF7C                     
   398                           ;main.c: 458:     TRISAbits.TRISA0 = 1;
   399  00DF7C  80C6               	bsf	198,0,c	;volatile
   400  00DF7E                     
   401                           ;main.c: 460:     nanntoka = PORTAbits.RA0;
   402  00DF7E  B0CE               	btfsc	206,0,c	;volatile
   403  00DF80  EFC4  F06F         	goto	u2751
   404  00DF84  EFC8  F06F         	goto	u2750
   405  00DF88                     u2751:
   406  00DF88  6A26               	clrf	??_main^(0+1280),c
   407  00DF8A  2A26               	incf	??_main^(0+1280),f,c
   408  00DF8C  EFC9  F06F         	goto	u2758
   409  00DF90                     u2750:
   410  00DF90  6A26               	clrf	??_main^(0+1280),c
   411  00DF92                     u2758:
   412  00DF92  5026               	movf	??_main^(0+1280),w,c
   413  00DF94  6E28               	movwf	_nanntoka^(0+1280),c
   414  00DF96  6A29               	clrf	(_nanntoka+1)^(0+1280),c
   415  00DF98  EFD0  F06F         	goto	l1608
   416  00DF9C                     l1606:
   417  00DF9C  ECB4  F079         	call	_Gaming	;wreg free
   418  00DFA0                     l1608:
   419  00DFA0  B0CE               	btfsc	206,0,c	;volatile
   420  00DFA2  EFD5  F06F         	goto	u2761
   421  00DFA6  EFD8  F06F         	goto	u2760
   422  00DFAA                     u2761:
   423  00DFAA  0E01               	movlw	1
   424  00DFAC  EFD9  F06F         	goto	u2770
   425  00DFB0                     u2760:
   426  00DFB0  0E00               	movlw	0
   427  00DFB2                     u2770:
   428  00DFB2  6E26               	movwf	??_main^(0+1280),c
   429  00DFB4  6A27               	clrf	(??_main+1)^(0+1280),c
   430  00DFB6  5028               	movf	_nanntoka^(0+1280),w,c
   431  00DFB8  1826               	xorwf	??_main^(0+1280),w,c
   432  00DFBA  E109               	bnz	u2780
   433  00DFBC  5029               	movf	(_nanntoka+1)^(0+1280),w,c
   434  00DFBE  1827               	xorwf	(??_main+1)^(0+1280),w,c
   435  00DFC0  B4D8               	btfsc	status,2,c
   436  00DFC2  EFE5  F06F         	goto	u2781
   437  00DFC6  EFE7  F06F         	goto	u2780
   438  00DFCA                     u2781:
   439  00DFCA  EFCE  F06F         	goto	l1606
   440  00DFCE                     u2780:
   441  00DFCE                     
   442                           ;main.c: 467:         nanntoka = PORTAbits.RA0;
   443  00DFCE  B0CE               	btfsc	206,0,c	;volatile
   444  00DFD0  EFEC  F06F         	goto	u2791
   445  00DFD4  EFF0  F06F         	goto	u2790
   446  00DFD8                     u2791:
   447  00DFD8  6A26               	clrf	??_main^(0+1280),c
   448  00DFDA  2A26               	incf	??_main^(0+1280),f,c
   449  00DFDC  EFF1  F06F         	goto	u2798
   450  00DFE0                     u2790:
   451  00DFE0  6A26               	clrf	??_main^(0+1280),c
   452  00DFE2                     u2798:
   453  00DFE2  5026               	movf	??_main^(0+1280),w,c
   454  00DFE4  6E28               	movwf	_nanntoka^(0+1280),c
   455  00DFE6  6A29               	clrf	(_nanntoka+1)^(0+1280),c
   456                           
   457                           ;main.c: 469:         while(nanntoka == PORTAbits.RA0){Red();}
   458  00DFE8  EFF8  F06F         	goto	l1614
   459  00DFEC                     l1612:
   460  00DFEC  EC0F  F072         	call	_Red	;wreg free
   461  00DFF0                     l1614:
   462  00DFF0  B0CE               	btfsc	206,0,c	;volatile
   463  00DFF2  EFFD  F06F         	goto	u2801
   464  00DFF6  EF00  F070         	goto	u2800
   465  00DFFA                     u2801:
   466  00DFFA  0E01               	movlw	1
   467  00DFFC  EF01  F070         	goto	u2810
   468  00E000                     u2800:
   469  00E000  0E00               	movlw	0
   470  00E002                     u2810:
   471  00E002  6E26               	movwf	??_main^(0+1280),c
   472  00E004  6A27               	clrf	(??_main+1)^(0+1280),c
   473  00E006  5028               	movf	_nanntoka^(0+1280),w,c
   474  00E008  1826               	xorwf	??_main^(0+1280),w,c
   475  00E00A  E109               	bnz	u2820
   476  00E00C  5029               	movf	(_nanntoka+1)^(0+1280),w,c
   477  00E00E  1827               	xorwf	(??_main+1)^(0+1280),w,c
   478  00E010  B4D8               	btfsc	status,2,c
   479  00E012  EF0D  F070         	goto	u2821
   480  00E016  EF0F  F070         	goto	u2820
   481  00E01A                     u2821:
   482  00E01A  EFF6  F06F         	goto	l1612
   483  00E01E                     u2820:
   484  00E01E                     
   485                           ;main.c: 470:         nanntoka = PORTAbits.RA0;
   486  00E01E  B0CE               	btfsc	206,0,c	;volatile
   487  00E020  EF14  F070         	goto	u2831
   488  00E024  EF18  F070         	goto	u2830
   489  00E028                     u2831:
   490  00E028  6A26               	clrf	??_main^(0+1280),c
   491  00E02A  2A26               	incf	??_main^(0+1280),f,c
   492  00E02C  EF19  F070         	goto	u2838
   493  00E030                     u2830:
   494  00E030  6A26               	clrf	??_main^(0+1280),c
   495  00E032                     u2838:
   496  00E032  5026               	movf	??_main^(0+1280),w,c
   497  00E034  6E28               	movwf	_nanntoka^(0+1280),c
   498  00E036  6A29               	clrf	(_nanntoka+1)^(0+1280),c
   499                           
   500                           ;main.c: 472:         while(nanntoka == PORTAbits.RA0){Blue();}
   501  00E038  EF20  F070         	goto	l1620
   502  00E03C                     l1618:
   503  00E03C  EC48  F070         	call	_Blue	;wreg free
   504  00E040                     l1620:
   505  00E040  B0CE               	btfsc	206,0,c	;volatile
   506  00E042  EF25  F070         	goto	u2841
   507  00E046  EF28  F070         	goto	u2840
   508  00E04A                     u2841:
   509  00E04A  0E01               	movlw	1
   510  00E04C  EF29  F070         	goto	u2850
   511  00E050                     u2840:
   512  00E050  0E00               	movlw	0
   513  00E052                     u2850:
   514  00E052  6E26               	movwf	??_main^(0+1280),c
   515  00E054  6A27               	clrf	(??_main+1)^(0+1280),c
   516  00E056  5028               	movf	_nanntoka^(0+1280),w,c
   517  00E058  1826               	xorwf	??_main^(0+1280),w,c
   518  00E05A  E109               	bnz	u2860
   519  00E05C  5029               	movf	(_nanntoka+1)^(0+1280),w,c
   520  00E05E  1827               	xorwf	(??_main+1)^(0+1280),w,c
   521  00E060  B4D8               	btfsc	status,2,c
   522  00E062  EF35  F070         	goto	u2861
   523  00E066  EF37  F070         	goto	u2860
   524  00E06A                     u2861:
   525  00E06A  EF1E  F070         	goto	l1618
   526  00E06E                     u2860:
   527  00E06E                     
   528                           ;main.c: 473:         nanntoka = PORTAbits.RA0;
   529  00E06E  B0CE               	btfsc	206,0,c	;volatile
   530  00E070  EF3C  F070         	goto	u2871
   531  00E074  EF40  F070         	goto	u2870
   532  00E078                     u2871:
   533  00E078  6A26               	clrf	??_main^(0+1280),c
   534  00E07A  2A26               	incf	??_main^(0+1280),f,c
   535  00E07C  EF41  F070         	goto	u2878
   536  00E080                     u2870:
   537  00E080  6A26               	clrf	??_main^(0+1280),c
   538  00E082                     u2878:
   539  00E082  5026               	movf	??_main^(0+1280),w,c
   540  00E084  6E28               	movwf	_nanntoka^(0+1280),c
   541  00E086  6A29               	clrf	(_nanntoka+1)^(0+1280),c
   542  00E088  EFD0  F06F         	goto	l1608
   543  00E08C  EFFE  F07F         	goto	start
   544  00E090                     __end_of_main:
   545                           	callstack 0
   546                           
   547 ;; *************** function _SYSTEM_Initialize *****************
   548 ;; Defined at:
   549 ;;		line 50 in file "mcc_generated_files/mcc.c"
   550 ;; Parameters:    Size  Location     Type
   551 ;;		None
   552 ;; Auto vars:     Size  Location     Type
   553 ;;		None
   554 ;; Return value:  Size  Location     Type
   555 ;;                  1    wreg      void 
   556 ;; Registers used:
   557 ;;		wreg, status,2, cstack
   558 ;; Tracked objects:
   559 ;;		On entry : 0/0
   560 ;;		On exit  : 0/0
   561 ;;		Unchanged: 0/0
   562 ;; Data sizes:     COMRAM   BANK5   BANK6   BANK7   BANK8   BANK9  BANK10  BANK11  BANK12  BANK13  BANK14  BANK15  BANK1
      +6  BANK17  BANK18  BANK19  BANK20  BANK21  BANK22  BANK23  BANK24  BANK25  BANK26  BANK27  BANK28  BANK29  BANK30  BANK3
      +1  BANK32  BANK33  BANK34  BANK35  BANK36
   563 ;;      Params:         0       0       0       0       0       0       0       0       0       0       0       0       
      +0       0       0       0       0       0       0       0       0       0       0       0       0       0       0       
      +0       0       0       0       0       0
   564 ;;      Locals:         0       0       0       0       0       0       0       0       0       0       0       0       
      +0       0       0       0       0       0       0       0       0       0       0       0       0       0       0       
      +0       0       0       0       0       0
   565 ;;      Temps:          0       0       0       0       0       0       0       0       0       0       0       0       
      +0       0       0       0       0       0       0       0       0       0       0       0       0       0       0       
      +0       0       0       0       0       0
   566 ;;      Totals:         0       0       0       0       0       0       0       0       0       0       0       0       
      +0       0       0       0       0       0       0       0       0       0       0       0       0       0       0       
      +0       0       0       0       0       0
   567 ;;Total ram usage:        0 bytes
   568 ;; Hardware stack levels used: 1
   569 ;; Hardware stack levels required when called: 1
   570 ;; This function calls:
   571 ;;		_OSCILLATOR_Initialize
   572 ;;		_PIN_MANAGER_Initialize
   573 ;;		_PMD_Initialize
   574 ;; This function is called by:
   575 ;;		_main
   576 ;; This function uses a non-reentrant model
   577 ;;
   578                           
   579                           	psect	text1
   580  00DE16                     __ptext1:
   581                           	callstack 0
   582  00DE16                     _SYSTEM_Initialize:
   583                           	callstack 125
   584  00DE16                     
   585                           ;mcc_generated_files/mcc.c: 52:     PMD_Initialize();
   586  00DE16  EC59  F06F         	call	_PMD_Initialize	;wreg free
   587                           
   588                           ;mcc_generated_files/mcc.c: 53:     PIN_MANAGER_Initialize();
   589  00DE1A  EC92  F06F         	call	_PIN_MANAGER_Initialize	;wreg free
   590                           
   591                           ;mcc_generated_files/mcc.c: 54:     OSCILLATOR_Initialize();
   592  00DE1E  EC46  F06F         	call	_OSCILLATOR_Initialize	;wreg free
   593  00DE22  0012               	return		;funcret
   594  00DE24                     __end_of_SYSTEM_Initialize:
   595                           	callstack 0
   596                           
   597 ;; *************** function _PMD_Initialize *****************
   598 ;; Defined at:
   599 ;;		line 75 in file "mcc_generated_files/mcc.c"
   600 ;; Parameters:    Size  Location     Type
   601 ;;		None
   602 ;; Auto vars:     Size  Location     Type
   603 ;;		None
   604 ;; Return value:  Size  Location     Type
   605 ;;                  1    wreg      void 
   606 ;; Registers used:
   607 ;;		wreg, status,2
   608 ;; Tracked objects:
   609 ;;		On entry : 0/0
   610 ;;		On exit  : 0/0
   611 ;;		Unchanged: 0/0
   612 ;; Data sizes:     COMRAM   BANK5   BANK6   BANK7   BANK8   BANK9  BANK10  BANK11  BANK12  BANK13  BANK14  BANK15  BANK1
      +6  BANK17  BANK18  BANK19  BANK20  BANK21  BANK22  BANK23  BANK24  BANK25  BANK26  BANK27  BANK28  BANK29  BANK30  BANK3
      +1  BANK32  BANK33  BANK34  BANK35  BANK36
   613 ;;      Params:         0       0       0       0       0       0       0       0       0       0       0       0       
      +0       0       0       0       0       0       0       0       0       0       0       0       0       0       0       
      +0       0       0       0       0       0
   614 ;;      Locals:         0       0       0       0       0       0       0       0       0       0       0       0       
      +0       0       0       0       0       0       0       0       0       0       0       0       0       0       0       
      +0       0       0       0       0       0
   615 ;;      Temps:          0       0       0       0       0       0       0       0       0       0       0       0       
      +0       0       0       0       0       0       0       0       0       0       0       0       0       0       0       
      +0       0       0       0       0       0
   616 ;;      Totals:         0       0       0       0       0       0       0       0       0       0       0       0       
      +0       0       0       0       0       0       0       0       0       0       0       0       0       0       0       
      +0       0       0       0       0       0
   617 ;;Total ram usage:        0 bytes
   618 ;; Hardware stack levels used: 1
   619 ;; This function calls:
   620 ;;		Nothing
   621 ;; This function is called by:
   622 ;;		_SYSTEM_Initialize
   623 ;; This function uses a non-reentrant model
   624 ;;
   625                           
   626                           	psect	text2
   627  00DEB2                     __ptext2:
   628                           	callstack 0
   629  00DEB2                     _PMD_Initialize:
   630                           	callstack 125
   631  00DEB2                     
   632                           ;mcc_generated_files/mcc.c: 78:     PMD0 = 0x00;
   633  00DEB2  0E00               	movlw	0
   634  00DEB4  0100               	movlb	0	; () banked
   635  00DEB6  6F60               	movwf	96,b	;volatile
   636                           
   637                           ;mcc_generated_files/mcc.c: 80:     PMD1 = 0x00;
   638  00DEB8  0E00               	movlw	0
   639  00DEBA  6F61               	movwf	97,b	;volatile
   640                           
   641                           ;mcc_generated_files/mcc.c: 82:     PMD2 = 0x00;
   642  00DEBC  0E00               	movlw	0
   643  00DEBE  6F62               	movwf	98,b	;volatile
   644                           
   645                           ;mcc_generated_files/mcc.c: 84:     PMD3 = 0x00;
   646  00DEC0  0E00               	movlw	0
   647  00DEC2  6F63               	movwf	99,b	;volatile
   648                           
   649                           ;mcc_generated_files/mcc.c: 86:     PMD4 = 0x00;
   650  00DEC4  0E00               	movlw	0
   651  00DEC6  6F64               	movwf	100,b	;volatile
   652                           
   653                           ;mcc_generated_files/mcc.c: 88:     PMD5 = 0x00;
   654  00DEC8  0E00               	movlw	0
   655  00DECA  6F65               	movwf	101,b	;volatile
   656                           
   657                           ;mcc_generated_files/mcc.c: 90:     PMD6 = 0x00;
   658  00DECC  0E00               	movlw	0
   659  00DECE  6F66               	movwf	102,b	;volatile
   660                           
   661                           ;mcc_generated_files/mcc.c: 92:     PMD7 = 0x00;
   662  00DED0  0E00               	movlw	0
   663  00DED2  6F67               	movwf	103,b	;volatile
   664                           
   665                           ;mcc_generated_files/mcc.c: 94:     PMD8 = 0x00;
   666  00DED4  0E00               	movlw	0
   667  00DED6  6F68               	movwf	104,b	;volatile
   668  00DED8                     
   669                           ; BSR set to: 0
   670  00DED8  0012               	return		;funcret
   671  00DEDA                     __end_of_PMD_Initialize:
   672                           	callstack 0
   673                           
   674 ;; *************** function _PIN_MANAGER_Initialize *****************
   675 ;; Defined at:
   676 ;;		line 55 in file "mcc_generated_files/pin_manager.c"
   677 ;; Parameters:    Size  Location     Type
   678 ;;		None
   679 ;; Auto vars:     Size  Location     Type
   680 ;;		None
   681 ;; Return value:  Size  Location     Type
   682 ;;                  1    wreg      void 
   683 ;; Registers used:
   684 ;;		wreg, status,2
   685 ;; Tracked objects:
   686 ;;		On entry : 0/0
   687 ;;		On exit  : 0/0
   688 ;;		Unchanged: 0/0
   689 ;; Data sizes:     COMRAM   BANK5   BANK6   BANK7   BANK8   BANK9  BANK10  BANK11  BANK12  BANK13  BANK14  BANK15  BANK1
      +6  BANK17  BANK18  BANK19  BANK20  BANK21  BANK22  BANK23  BANK24  BANK25  BANK26  BANK27  BANK28  BANK29  BANK30  BANK3
      +1  BANK32  BANK33  BANK34  BANK35  BANK36
   690 ;;      Params:         0       0       0       0       0       0       0       0       0       0       0       0       
      +0       0       0       0       0       0       0       0       0       0       0       0       0       0       0       
      +0       0       0       0       0       0
   691 ;;      Locals:         0       0       0       0       0       0       0       0       0       0       0       0       
      +0       0       0       0       0       0       0       0       0       0       0       0       0       0       0       
      +0       0       0       0       0       0
   692 ;;      Temps:          0       0       0       0       0       0       0       0       0       0       0       0       
      +0       0       0       0       0       0       0       0       0       0       0       0       0       0       0       
      +0       0       0       0       0       0
   693 ;;      Totals:         0       0       0       0       0       0       0       0       0       0       0       0       
      +0       0       0       0       0       0       0       0       0       0       0       0       0       0       0       
      +0       0       0       0       0       0
   694 ;;Total ram usage:        0 bytes
   695 ;; Hardware stack levels used: 1
   696 ;; This function calls:
   697 ;;		Nothing
   698 ;; This function is called by:
   699 ;;		_SYSTEM_Initialize
   700 ;; This function uses a non-reentrant model
   701 ;;
   702                           
   703                           	psect	text3
   704  00DF24                     __ptext3:
   705                           	callstack 0
   706  00DF24                     _PIN_MANAGER_Initialize:
   707                           	callstack 125
   708  00DF24                     
   709                           ;mcc_generated_files/pin_manager.c: 60:     LATA = 0x00;
   710  00DF24  0E00               	movlw	0
   711  00DF26  6EBE               	movwf	190,c	;volatile
   712                           
   713                           ;mcc_generated_files/pin_manager.c: 61:     LATB = 0x00;
   714  00DF28  0E00               	movlw	0
   715  00DF2A  6EBF               	movwf	191,c	;volatile
   716                           
   717                           ;mcc_generated_files/pin_manager.c: 62:     LATC = 0x00;
   718  00DF2C  0E00               	movlw	0
   719  00DF2E  6EC0               	movwf	192,c	;volatile
   720                           
   721                           ;mcc_generated_files/pin_manager.c: 67:     TRISE = 0x08;
   722  00DF30  0E08               	movlw	8
   723  00DF32  6ECA               	movwf	202,c	;volatile
   724  00DF34                     
   725                           ;mcc_generated_files/pin_manager.c: 68:     TRISA = 0xFF;
   726  00DF34  68C6               	setf	198,c	;volatile
   727  00DF36                     
   728                           ;mcc_generated_files/pin_manager.c: 69:     TRISB = 0xFF;
   729  00DF36  68C7               	setf	199,c	;volatile
   730  00DF38                     
   731                           ;mcc_generated_files/pin_manager.c: 70:     TRISC = 0xFF;
   732  00DF38  68C8               	setf	200,c	;volatile
   733  00DF3A                     
   734                           ;mcc_generated_files/pin_manager.c: 75:     ANSELC = 0xFF;
   735  00DF3A  0104               	movlb	4	; () banked
   736  00DF3C  6910               	setf	16,b	;volatile
   737  00DF3E                     
   738                           ; BSR set to: 4
   739                           ;mcc_generated_files/pin_manager.c: 76:     ANSELB = 0xFF;
   740  00DF3E  6908               	setf	8,b	;volatile
   741                           
   742                           ;mcc_generated_files/pin_manager.c: 77:     ANSELA = 0xFE;
   743  00DF40  0EFE               	movlw	254
   744  00DF42  6F00               	movwf	0,b	;volatile
   745                           
   746                           ;mcc_generated_files/pin_manager.c: 82:     WPUE = 0x00;
   747  00DF44  0E00               	movlw	0
   748  00DF46  6F21               	movwf	33,b	;volatile
   749                           
   750                           ;mcc_generated_files/pin_manager.c: 83:     WPUB = 0x00;
   751  00DF48  0E00               	movlw	0
   752  00DF4A  6F09               	movwf	9,b	;volatile
   753                           
   754                           ;mcc_generated_files/pin_manager.c: 84:     WPUA = 0x00;
   755  00DF4C  0E00               	movlw	0
   756  00DF4E  6F01               	movwf	1,b	;volatile
   757                           
   758                           ;mcc_generated_files/pin_manager.c: 85:     WPUC = 0x00;
   759  00DF50  0E00               	movlw	0
   760  00DF52  6F11               	movwf	17,b	;volatile
   761                           
   762                           ;mcc_generated_files/pin_manager.c: 90:     ODCONA = 0x00;
   763  00DF54  0E00               	movlw	0
   764  00DF56  6F02               	movwf	2,b	;volatile
   765                           
   766                           ;mcc_generated_files/pin_manager.c: 91:     ODCONB = 0x00;
   767  00DF58  0E00               	movlw	0
   768  00DF5A  6F0A               	movwf	10,b	;volatile
   769                           
   770                           ;mcc_generated_files/pin_manager.c: 92:     ODCONC = 0x00;
   771  00DF5C  0E00               	movlw	0
   772  00DF5E  6F12               	movwf	18,b	;volatile
   773  00DF60                     
   774                           ; BSR set to: 4
   775                           ;mcc_generated_files/pin_manager.c: 97:     SLRCONA = 0xFF;
   776  00DF60  6903               	setf	3,b	;volatile
   777  00DF62                     
   778                           ; BSR set to: 4
   779                           ;mcc_generated_files/pin_manager.c: 98:     SLRCONB = 0xFF;
   780  00DF62  690B               	setf	11,b	;volatile
   781  00DF64                     
   782                           ; BSR set to: 4
   783                           ;mcc_generated_files/pin_manager.c: 99:     SLRCONC = 0xFF;
   784  00DF64  6913               	setf	19,b	;volatile
   785  00DF66                     
   786                           ; BSR set to: 4
   787                           ;mcc_generated_files/pin_manager.c: 104:     INLVLA = 0xFF;
   788  00DF66  6904               	setf	4,b	;volatile
   789  00DF68                     
   790                           ; BSR set to: 4
   791                           ;mcc_generated_files/pin_manager.c: 105:     INLVLB = 0xFF;
   792  00DF68  690C               	setf	12,b	;volatile
   793  00DF6A                     
   794                           ; BSR set to: 4
   795                           ;mcc_generated_files/pin_manager.c: 106:     INLVLC = 0xFF;
   796  00DF6A  6914               	setf	20,b	;volatile
   797                           
   798                           ;mcc_generated_files/pin_manager.c: 107:     INLVLE = 0x08;
   799  00DF6C  0E08               	movlw	8
   800  00DF6E  6F24               	movwf	36,b	;volatile
   801  00DF70                     
   802                           ; BSR set to: 4
   803  00DF70  0012               	return		;funcret
   804  00DF72                     __end_of_PIN_MANAGER_Initialize:
   805                           	callstack 0
   806                           
   807 ;; *************** function _OSCILLATOR_Initialize *****************
   808 ;; Defined at:
   809 ;;		line 57 in file "mcc_generated_files/mcc.c"
   810 ;; Parameters:    Size  Location     Type
   811 ;;		None
   812 ;; Auto vars:     Size  Location     Type
   813 ;;		None
   814 ;; Return value:  Size  Location     Type
   815 ;;                  1    wreg      void 
   816 ;; Registers used:
   817 ;;		wreg, status,2
   818 ;; Tracked objects:
   819 ;;		On entry : 0/0
   820 ;;		On exit  : 0/0
   821 ;;		Unchanged: 0/0
   822 ;; Data sizes:     COMRAM   BANK5   BANK6   BANK7   BANK8   BANK9  BANK10  BANK11  BANK12  BANK13  BANK14  BANK15  BANK1
      +6  BANK17  BANK18  BANK19  BANK20  BANK21  BANK22  BANK23  BANK24  BANK25  BANK26  BANK27  BANK28  BANK29  BANK30  BANK3
      +1  BANK32  BANK33  BANK34  BANK35  BANK36
   823 ;;      Params:         0       0       0       0       0       0       0       0       0       0       0       0       
      +0       0       0       0       0       0       0       0       0       0       0       0       0       0       0       
      +0       0       0       0       0       0
   824 ;;      Locals:         0       0       0       0       0       0       0       0       0       0       0       0       
      +0       0       0       0       0       0       0       0       0       0       0       0       0       0       0       
      +0       0       0       0       0       0
   825 ;;      Temps:          0       0       0       0       0       0       0       0       0       0       0       0       
      +0       0       0       0       0       0       0       0       0       0       0       0       0       0       0       
      +0       0       0       0       0       0
   826 ;;      Totals:         0       0       0       0       0       0       0       0       0       0       0       0       
      +0       0       0       0       0       0       0       0       0       0       0       0       0       0       0       
      +0       0       0       0       0       0
   827 ;;Total ram usage:        0 bytes
   828 ;; Hardware stack levels used: 1
   829 ;; This function calls:
   830 ;;		Nothing
   831 ;; This function is called by:
   832 ;;		_SYSTEM_Initialize
   833 ;; This function uses a non-reentrant model
   834 ;;
   835                           
   836                           	psect	text4
   837  00DE8C                     __ptext4:
   838                           	callstack 0
   839  00DE8C                     _OSCILLATOR_Initialize:
   840                           	callstack 125
   841  00DE8C                     
   842                           ;mcc_generated_files/mcc.c: 60:     OSCCON1 = 0x20;
   843  00DE8C  0E20               	movlw	32
   844  00DE8E  0100               	movlb	0	; () banked
   845  00DE90  6FAD               	movwf	173,b	;volatile
   846                           
   847                           ;mcc_generated_files/mcc.c: 62:     OSCCON3 = 0x00;
   848  00DE92  0E00               	movlw	0
   849  00DE94  6FAF               	movwf	175,b	;volatile
   850                           
   851                           ;mcc_generated_files/mcc.c: 64:     OSCEN = 0x01;
   852  00DE96  0E01               	movlw	1
   853  00DE98  6FB3               	movwf	179,b	;volatile
   854                           
   855                           ;mcc_generated_files/mcc.c: 66:     OSCFRQ = 0x02;
   856  00DE9A  0E02               	movlw	2
   857  00DE9C  6FB1               	movwf	177,b	;volatile
   858                           
   859                           ;mcc_generated_files/mcc.c: 68:     OSCTUNE = 0x00;
   860  00DE9E  0E00               	movlw	0
   861  00DEA0  6FB0               	movwf	176,b	;volatile
   862  00DEA2                     l96:
   863                           
   864                           ; BSR set to: 0
   865                           ;mcc_generated_files/mcc.c: 70:     while(PLLR == 0)
   866  00DEA2  A1B2               	btfss	178,0,b	;volatile
   867  00DEA4  EF56  F06F         	goto	u11
   868  00DEA8  EF58  F06F         	goto	u10
   869  00DEAC                     u11:
   870  00DEAC  EF51  F06F         	goto	l96
   871  00DEB0                     u10:
   872  00DEB0                     
   873                           ; BSR set to: 0
   874  00DEB0  0012               	return		;funcret
   875  00DEB2                     __end_of_OSCILLATOR_Initialize:
   876                           	callstack 0
   877                           
   878 ;; *************** function _Red *****************
   879 ;; Defined at:
   880 ;;		line 190 in file "main.c"
   881 ;; Parameters:    Size  Location     Type
   882 ;;		None
   883 ;; Auto vars:     Size  Location     Type
   884 ;;  i               2   15[COMRAM] int 
   885 ;;  i               2   13[COMRAM] int 
   886 ;;  i               2   11[COMRAM] int 
   887 ;;  i               2    9[COMRAM] int 
   888 ;; Return value:  Size  Location     Type
   889 ;;                  2  152[None  ] int 
   890 ;; Registers used:
   891 ;;		wreg, fsr2l, fsr2h, status,2, status,0, pcl, pclath, pclatu, tosl, prodl, prodh, cstack
   892 ;; Tracked objects:
   893 ;;		On entry : 0/0
   894 ;;		On exit  : 0/0
   895 ;;		Unchanged: 0/0
   896 ;; Data sizes:     COMRAM   BANK5   BANK6   BANK7   BANK8   BANK9  BANK10  BANK11  BANK12  BANK13  BANK14  BANK15  BANK1
      +6  BANK17  BANK18  BANK19  BANK20  BANK21  BANK22  BANK23  BANK24  BANK25  BANK26  BANK27  BANK28  BANK29  BANK30  BANK3
      +1  BANK32  BANK33  BANK34  BANK35  BANK36
   897 ;;      Params:         0       0       0       0       0       0       0       0       0       0       0       0       
      +0       0       0       0       0       0       0       0       0       0       0       0       0       0       0       
      +0       0       0       0       0       0
   898 ;;      Locals:         8       0       0       0       0       0       0       0       0       0       0       0       
      +0       0       0       0       0       0       0       0       0       0       0       0       0       0       0       
      +0       0       0       0       0       0
   899 ;;      Temps:          2       0       0       0       0       0       0       0       0       0       0       0       
      +0       0       0       0       0       0       0       0       0       0       0       0       0       0       0       
      +0       0       0       0       0       0
   900 ;;      Totals:        10       0       0       0       0       0       0       0       0       0       0       0       
      +0       0       0       0       0       0       0       0       0       0       0       0       0       0       0       
      +0       0       0       0       0       0
   901 ;;Total ram usage:       10 bytes
   902 ;; Hardware stack levels used: 1
   903 ;; Hardware stack levels required when called: 2
   904 ;; This function calls:
   905 ;;		_port1_send3byte
   906 ;;		_port2_send3byte
   907 ;; This function is called by:
   908 ;;		_main
   909 ;; This function uses a non-reentrant model
   910 ;;
   911                           
   912                           	psect	text5
   913  00E41E                     __ptext5:
   914                           	callstack 0
   915  00E41E                     _Red:
   916                           	callstack 124
   917  00E41E                     l153:
   918  00E41E                     
   919                           ;main.c: 192:         if(PORTAbits.RA0 != nanntoka){break;}
   920  00E41E  B0CE               	btfsc	206,0,c	;volatile
   921  00E420  EF14  F072         	goto	u2411
   922  00E424  EF17  F072         	goto	u2410
   923  00E428                     u2411:
   924  00E428  0E01               	movlw	1
   925  00E42A  EF18  F072         	goto	u2420
   926  00E42E                     u2410:
   927  00E42E  0E00               	movlw	0
   928  00E430                     u2420:
   929  00E430  6E08               	movwf	??_Red^(0+1280),c
   930  00E432  6A09               	clrf	(??_Red+1)^(0+1280),c
   931  00E434  5028               	movf	_nanntoka^(0+1280),w,c
   932  00E436  1808               	xorwf	??_Red^(0+1280),w,c
   933  00E438  E109               	bnz	u2430
   934  00E43A  5029               	movf	(_nanntoka+1)^(0+1280),w,c
   935  00E43C  1809               	xorwf	(??_Red+1)^(0+1280),w,c
   936  00E43E  B4D8               	btfsc	status,2,c
   937  00E440  EF24  F072         	goto	u2431
   938  00E444  EF26  F072         	goto	u2430
   939  00E448                     u2431:
   940  00E448  EF28  F072         	goto	l1296
   941  00E44C                     u2430:
   942  00E44C  EFD5  F073         	goto	l166
   943  00E450                     l1296:
   944                           
   945                           ;main.c: 194:         for(int i = 0;i < 10;i++){
   946  00E450  0E00               	movlw	0
   947  00E452  6E0B               	movwf	(Red@i+1)^(0+1280),c
   948  00E454  0E00               	movlw	0
   949  00E456  6E0A               	movwf	Red@i^(0+1280),c
   950  00E458                     l1302:
   951                           
   952                           ;main.c: 195:             port1_send3byte(255,0,0);
   953  00E458  0E00               	movlw	0
   954  00E45A  6E02               	movwf	(port1_send3byte@R+1)^(0+1280),c
   955  00E45C  6801               	setf	port1_send3byte@R^(0+1280),c
   956  00E45E  0E00               	movlw	0
   957  00E460  6E04               	movwf	(port1_send3byte@G+1)^(0+1280),c
   958  00E462  0E00               	movlw	0
   959  00E464  6E03               	movwf	port1_send3byte@G^(0+1280),c
   960  00E466  0E00               	movlw	0
   961  00E468  6E06               	movwf	(port1_send3byte@B+1)^(0+1280),c
   962  00E46A  0E00               	movlw	0
   963  00E46C  6E05               	movwf	port1_send3byte@B^(0+1280),c
   964  00E46E  ECD6  F073         	call	_port1_send3byte	;wreg free
   965                           
   966                           ;main.c: 196:             port1_send3byte(255,0,0);
   967  00E472  0E00               	movlw	0
   968  00E474  6E02               	movwf	(port1_send3byte@R+1)^(0+1280),c
   969  00E476  6801               	setf	port1_send3byte@R^(0+1280),c
   970  00E478  0E00               	movlw	0
   971  00E47A  6E04               	movwf	(port1_send3byte@G+1)^(0+1280),c
   972  00E47C  0E00               	movlw	0
   973  00E47E  6E03               	movwf	port1_send3byte@G^(0+1280),c
   974  00E480  0E00               	movlw	0
   975  00E482  6E06               	movwf	(port1_send3byte@B+1)^(0+1280),c
   976  00E484  0E00               	movlw	0
   977  00E486  6E05               	movwf	port1_send3byte@B^(0+1280),c
   978  00E488  ECD6  F073         	call	_port1_send3byte	;wreg free
   979                           
   980                           ;main.c: 197:             port1_send3byte(255,0,0);
   981  00E48C  0E00               	movlw	0
   982  00E48E  6E02               	movwf	(port1_send3byte@R+1)^(0+1280),c
   983  00E490  6801               	setf	port1_send3byte@R^(0+1280),c
   984  00E492  0E00               	movlw	0
   985  00E494  6E04               	movwf	(port1_send3byte@G+1)^(0+1280),c
   986  00E496  0E00               	movlw	0
   987  00E498  6E03               	movwf	port1_send3byte@G^(0+1280),c
   988  00E49A  0E00               	movlw	0
   989  00E49C  6E06               	movwf	(port1_send3byte@B+1)^(0+1280),c
   990  00E49E  0E00               	movlw	0
   991  00E4A0  6E05               	movwf	port1_send3byte@B^(0+1280),c
   992  00E4A2  ECD6  F073         	call	_port1_send3byte	;wreg free
   993                           
   994                           ;main.c: 198:             port1_send3byte(255,255,0);
   995  00E4A6  0E00               	movlw	0
   996  00E4A8  6E02               	movwf	(port1_send3byte@R+1)^(0+1280),c
   997  00E4AA  6801               	setf	port1_send3byte@R^(0+1280),c
   998  00E4AC  0E00               	movlw	0
   999  00E4AE  6E04               	movwf	(port1_send3byte@G+1)^(0+1280),c
  1000  00E4B0  6803               	setf	port1_send3byte@G^(0+1280),c
  1001  00E4B2  0E00               	movlw	0
  1002  00E4B4  6E06               	movwf	(port1_send3byte@B+1)^(0+1280),c
  1003  00E4B6  0E00               	movlw	0
  1004  00E4B8  6E05               	movwf	port1_send3byte@B^(0+1280),c
  1005  00E4BA  ECD6  F073         	call	_port1_send3byte	;wreg free
  1006                           
  1007                           ;main.c: 199:             port1_send3byte(255,255,0);
  1008  00E4BE  0E00               	movlw	0
  1009  00E4C0  6E02               	movwf	(port1_send3byte@R+1)^(0+1280),c
  1010  00E4C2  6801               	setf	port1_send3byte@R^(0+1280),c
  1011  00E4C4  0E00               	movlw	0
  1012  00E4C6  6E04               	movwf	(port1_send3byte@G+1)^(0+1280),c
  1013  00E4C8  6803               	setf	port1_send3byte@G^(0+1280),c
  1014  00E4CA  0E00               	movlw	0
  1015  00E4CC  6E06               	movwf	(port1_send3byte@B+1)^(0+1280),c
  1016  00E4CE  0E00               	movlw	0
  1017  00E4D0  6E05               	movwf	port1_send3byte@B^(0+1280),c
  1018  00E4D2  ECD6  F073         	call	_port1_send3byte	;wreg free
  1019                           
  1020                           ;main.c: 200:             port1_send3byte(255,255,0);
  1021  00E4D6  0E00               	movlw	0
  1022  00E4D8  6E02               	movwf	(port1_send3byte@R+1)^(0+1280),c
  1023  00E4DA  6801               	setf	port1_send3byte@R^(0+1280),c
  1024  00E4DC  0E00               	movlw	0
  1025  00E4DE  6E04               	movwf	(port1_send3byte@G+1)^(0+1280),c
  1026  00E4E0  6803               	setf	port1_send3byte@G^(0+1280),c
  1027  00E4E2  0E00               	movlw	0
  1028  00E4E4  6E06               	movwf	(port1_send3byte@B+1)^(0+1280),c
  1029  00E4E6  0E00               	movlw	0
  1030  00E4E8  6E05               	movwf	port1_send3byte@B^(0+1280),c
  1031  00E4EA  ECD6  F073         	call	_port1_send3byte	;wreg free
  1032  00E4EE                     
  1033                           ;main.c: 201:         }
  1034  00E4EE  4A0A               	infsnz	Red@i^(0+1280),f,c
  1035  00E4F0  2A0B               	incf	(Red@i+1)^(0+1280),f,c
  1036  00E4F2  BE0B               	btfsc	(Red@i+1)^(0+1280),7,c
  1037  00E4F4  EF85  F072         	goto	u2441
  1038  00E4F8  500B               	movf	(Red@i+1)^(0+1280),w,c
  1039  00E4FA  E109               	bnz	u2440
  1040  00E4FC  0E0A               	movlw	10
  1041  00E4FE  5C0A               	subwf	Red@i^(0+1280),w,c
  1042  00E500  A0D8               	btfss	status,0,c
  1043  00E502  EF85  F072         	goto	u2441
  1044  00E506  EF87  F072         	goto	u2440
  1045  00E50A                     u2441:
  1046  00E50A  EF2C  F072         	goto	l1302
  1047  00E50E                     u2440:
  1048  00E50E                     
  1049                           ;main.c: 203:         for(int i = 0;i < 10;i++){
  1050  00E50E  0E00               	movlw	0
  1051  00E510  6E0D               	movwf	(Red@i_280+1)^(0+1280),c
  1052  00E512  0E00               	movlw	0
  1053  00E514  6E0C               	movwf	Red@i_280^(0+1280),c
  1054  00E516                     l1314:
  1055                           
  1056                           ;main.c: 204:             port2_send3byte(255,255,0);
  1057  00E516  0E00               	movlw	0
  1058  00E518  6E02               	movwf	(port2_send3byte@R+1)^(0+1280),c
  1059  00E51A  6801               	setf	port2_send3byte@R^(0+1280),c
  1060  00E51C  0E00               	movlw	0
  1061  00E51E  6E04               	movwf	(port2_send3byte@G+1)^(0+1280),c
  1062  00E520  6803               	setf	port2_send3byte@G^(0+1280),c
  1063  00E522  0E00               	movlw	0
  1064  00E524  6E06               	movwf	(port2_send3byte@B+1)^(0+1280),c
  1065  00E526  0E00               	movlw	0
  1066  00E528  6E05               	movwf	port2_send3byte@B^(0+1280),c
  1067  00E52A  ECC5  F076         	call	_port2_send3byte	;wreg free
  1068                           
  1069                           ;main.c: 205:             port2_send3byte(255,255,0);
  1070  00E52E  0E00               	movlw	0
  1071  00E530  6E02               	movwf	(port2_send3byte@R+1)^(0+1280),c
  1072  00E532  6801               	setf	port2_send3byte@R^(0+1280),c
  1073  00E534  0E00               	movlw	0
  1074  00E536  6E04               	movwf	(port2_send3byte@G+1)^(0+1280),c
  1075  00E538  6803               	setf	port2_send3byte@G^(0+1280),c
  1076  00E53A  0E00               	movlw	0
  1077  00E53C  6E06               	movwf	(port2_send3byte@B+1)^(0+1280),c
  1078  00E53E  0E00               	movlw	0
  1079  00E540  6E05               	movwf	port2_send3byte@B^(0+1280),c
  1080  00E542  ECC5  F076         	call	_port2_send3byte	;wreg free
  1081                           
  1082                           ;main.c: 206:             port2_send3byte(255,255,0);
  1083  00E546  0E00               	movlw	0
  1084  00E548  6E02               	movwf	(port2_send3byte@R+1)^(0+1280),c
  1085  00E54A  6801               	setf	port2_send3byte@R^(0+1280),c
  1086  00E54C  0E00               	movlw	0
  1087  00E54E  6E04               	movwf	(port2_send3byte@G+1)^(0+1280),c
  1088  00E550  6803               	setf	port2_send3byte@G^(0+1280),c
  1089  00E552  0E00               	movlw	0
  1090  00E554  6E06               	movwf	(port2_send3byte@B+1)^(0+1280),c
  1091  00E556  0E00               	movlw	0
  1092  00E558  6E05               	movwf	port2_send3byte@B^(0+1280),c
  1093  00E55A  ECC5  F076         	call	_port2_send3byte	;wreg free
  1094                           
  1095                           ;main.c: 207:             port2_send3byte(255,0,0);
  1096  00E55E  0E00               	movlw	0
  1097  00E560  6E02               	movwf	(port2_send3byte@R+1)^(0+1280),c
  1098  00E562  6801               	setf	port2_send3byte@R^(0+1280),c
  1099  00E564  0E00               	movlw	0
  1100  00E566  6E04               	movwf	(port2_send3byte@G+1)^(0+1280),c
  1101  00E568  0E00               	movlw	0
  1102  00E56A  6E03               	movwf	port2_send3byte@G^(0+1280),c
  1103  00E56C  0E00               	movlw	0
  1104  00E56E  6E06               	movwf	(port2_send3byte@B+1)^(0+1280),c
  1105  00E570  0E00               	movlw	0
  1106  00E572  6E05               	movwf	port2_send3byte@B^(0+1280),c
  1107  00E574  ECC5  F076         	call	_port2_send3byte	;wreg free
  1108                           
  1109                           ;main.c: 208:             port2_send3byte(255,0,0);
  1110  00E578  0E00               	movlw	0
  1111  00E57A  6E02               	movwf	(port2_send3byte@R+1)^(0+1280),c
  1112  00E57C  6801               	setf	port2_send3byte@R^(0+1280),c
  1113  00E57E  0E00               	movlw	0
  1114  00E580  6E04               	movwf	(port2_send3byte@G+1)^(0+1280),c
  1115  00E582  0E00               	movlw	0
  1116  00E584  6E03               	movwf	port2_send3byte@G^(0+1280),c
  1117  00E586  0E00               	movlw	0
  1118  00E588  6E06               	movwf	(port2_send3byte@B+1)^(0+1280),c
  1119  00E58A  0E00               	movlw	0
  1120  00E58C  6E05               	movwf	port2_send3byte@B^(0+1280),c
  1121  00E58E  ECC5  F076         	call	_port2_send3byte	;wreg free
  1122                           
  1123                           ;main.c: 209:             port2_send3byte(255,0,0);
  1124  00E592  0E00               	movlw	0
  1125  00E594  6E02               	movwf	(port2_send3byte@R+1)^(0+1280),c
  1126  00E596  6801               	setf	port2_send3byte@R^(0+1280),c
  1127  00E598  0E00               	movlw	0
  1128  00E59A  6E04               	movwf	(port2_send3byte@G+1)^(0+1280),c
  1129  00E59C  0E00               	movlw	0
  1130  00E59E  6E03               	movwf	port2_send3byte@G^(0+1280),c
  1131  00E5A0  0E00               	movlw	0
  1132  00E5A2  6E06               	movwf	(port2_send3byte@B+1)^(0+1280),c
  1133  00E5A4  0E00               	movlw	0
  1134  00E5A6  6E05               	movwf	port2_send3byte@B^(0+1280),c
  1135  00E5A8  ECC5  F076         	call	_port2_send3byte	;wreg free
  1136  00E5AC                     
  1137                           ;main.c: 210:         }
  1138  00E5AC  4A0C               	infsnz	Red@i_280^(0+1280),f,c
  1139  00E5AE  2A0D               	incf	(Red@i_280+1)^(0+1280),f,c
  1140  00E5B0  BE0D               	btfsc	(Red@i_280+1)^(0+1280),7,c
  1141  00E5B2  EFE4  F072         	goto	u2451
  1142  00E5B6  500D               	movf	(Red@i_280+1)^(0+1280),w,c
  1143  00E5B8  E109               	bnz	u2450
  1144  00E5BA  0E0A               	movlw	10
  1145  00E5BC  5C0C               	subwf	Red@i_280^(0+1280),w,c
  1146  00E5BE  A0D8               	btfss	status,0,c
  1147  00E5C0  EFE4  F072         	goto	u2451
  1148  00E5C4  EFE6  F072         	goto	u2450
  1149  00E5C8                     u2451:
  1150  00E5C8  EF8B  F072         	goto	l1314
  1151  00E5CC                     u2450:
  1152  00E5CC                     
  1153                           ;main.c: 212:         _delay((unsigned long)((150)*(40000000/4000.0)));
  1154  00E5CC  0E08               	movlw	8
  1155  00E5CE  6E09               	movwf	(??_Red+1)^(0+1280),c
  1156  00E5D0  0E9D               	movlw	157
  1157  00E5D2  6E08               	movwf	??_Red^(0+1280),c
  1158  00E5D4  0E06               	movlw	6
  1159  00E5D6                     u2887:
  1160  00E5D6  2EE8               	decfsz	wreg,f,c
  1161  00E5D8  D7FE               	bra	u2887
  1162  00E5DA  2E08               	decfsz	??_Red^(0+1280),f,c
  1163  00E5DC  D7FC               	bra	u2887
  1164  00E5DE  2E09               	decfsz	(??_Red+1)^(0+1280),f,c
  1165  00E5E0  D7FA               	bra	u2887
  1166  00E5E2                     
  1167                           ;main.c: 214:         if(PORTAbits.RA0 != nanntoka){break;}
  1168  00E5E2  B0CE               	btfsc	206,0,c	;volatile
  1169  00E5E4  EFF6  F072         	goto	u2461
  1170  00E5E8  EFF9  F072         	goto	u2460
  1171  00E5EC                     u2461:
  1172  00E5EC  0E01               	movlw	1
  1173  00E5EE  EFFA  F072         	goto	u2470
  1174  00E5F2                     u2460:
  1175  00E5F2  0E00               	movlw	0
  1176  00E5F4                     u2470:
  1177  00E5F4  6E08               	movwf	??_Red^(0+1280),c
  1178  00E5F6  6A09               	clrf	(??_Red+1)^(0+1280),c
  1179  00E5F8  5028               	movf	_nanntoka^(0+1280),w,c
  1180  00E5FA  1808               	xorwf	??_Red^(0+1280),w,c
  1181  00E5FC  E109               	bnz	u2480
  1182  00E5FE  5029               	movf	(_nanntoka+1)^(0+1280),w,c
  1183  00E600  1809               	xorwf	(??_Red+1)^(0+1280),w,c
  1184  00E602  B4D8               	btfsc	status,2,c
  1185  00E604  EF06  F073         	goto	u2481
  1186  00E608  EF08  F073         	goto	u2480
  1187  00E60C                     u2481:
  1188  00E60C  EF0A  F073         	goto	l1326
  1189  00E610                     u2480:
  1190  00E610  EFD5  F073         	goto	l166
  1191  00E614                     l1326:
  1192                           
  1193                           ;main.c: 216:         for(int i = 0;i < 10;i++){
  1194  00E614  0E00               	movlw	0
  1195  00E616  6E0F               	movwf	(Red@i_282+1)^(0+1280),c
  1196  00E618  0E00               	movlw	0
  1197  00E61A  6E0E               	movwf	Red@i_282^(0+1280),c
  1198  00E61C                     l1332:
  1199                           
  1200                           ;main.c: 217:             port1_send3byte(255,255,0);
  1201  00E61C  0E00               	movlw	0
  1202  00E61E  6E02               	movwf	(port1_send3byte@R+1)^(0+1280),c
  1203  00E620  6801               	setf	port1_send3byte@R^(0+1280),c
  1204  00E622  0E00               	movlw	0
  1205  00E624  6E04               	movwf	(port1_send3byte@G+1)^(0+1280),c
  1206  00E626  6803               	setf	port1_send3byte@G^(0+1280),c
  1207  00E628  0E00               	movlw	0
  1208  00E62A  6E06               	movwf	(port1_send3byte@B+1)^(0+1280),c
  1209  00E62C  0E00               	movlw	0
  1210  00E62E  6E05               	movwf	port1_send3byte@B^(0+1280),c
  1211  00E630  ECD6  F073         	call	_port1_send3byte	;wreg free
  1212                           
  1213                           ;main.c: 218:             port1_send3byte(255,255,0);
  1214  00E634  0E00               	movlw	0
  1215  00E636  6E02               	movwf	(port1_send3byte@R+1)^(0+1280),c
  1216  00E638  6801               	setf	port1_send3byte@R^(0+1280),c
  1217  00E63A  0E00               	movlw	0
  1218  00E63C  6E04               	movwf	(port1_send3byte@G+1)^(0+1280),c
  1219  00E63E  6803               	setf	port1_send3byte@G^(0+1280),c
  1220  00E640  0E00               	movlw	0
  1221  00E642  6E06               	movwf	(port1_send3byte@B+1)^(0+1280),c
  1222  00E644  0E00               	movlw	0
  1223  00E646  6E05               	movwf	port1_send3byte@B^(0+1280),c
  1224  00E648  ECD6  F073         	call	_port1_send3byte	;wreg free
  1225                           
  1226                           ;main.c: 219:             port1_send3byte(255,255,0);
  1227  00E64C  0E00               	movlw	0
  1228  00E64E  6E02               	movwf	(port1_send3byte@R+1)^(0+1280),c
  1229  00E650  6801               	setf	port1_send3byte@R^(0+1280),c
  1230  00E652  0E00               	movlw	0
  1231  00E654  6E04               	movwf	(port1_send3byte@G+1)^(0+1280),c
  1232  00E656  6803               	setf	port1_send3byte@G^(0+1280),c
  1233  00E658  0E00               	movlw	0
  1234  00E65A  6E06               	movwf	(port1_send3byte@B+1)^(0+1280),c
  1235  00E65C  0E00               	movlw	0
  1236  00E65E  6E05               	movwf	port1_send3byte@B^(0+1280),c
  1237  00E660  ECD6  F073         	call	_port1_send3byte	;wreg free
  1238                           
  1239                           ;main.c: 220:             port1_send3byte(255,0,0);
  1240  00E664  0E00               	movlw	0
  1241  00E666  6E02               	movwf	(port1_send3byte@R+1)^(0+1280),c
  1242  00E668  6801               	setf	port1_send3byte@R^(0+1280),c
  1243  00E66A  0E00               	movlw	0
  1244  00E66C  6E04               	movwf	(port1_send3byte@G+1)^(0+1280),c
  1245  00E66E  0E00               	movlw	0
  1246  00E670  6E03               	movwf	port1_send3byte@G^(0+1280),c
  1247  00E672  0E00               	movlw	0
  1248  00E674  6E06               	movwf	(port1_send3byte@B+1)^(0+1280),c
  1249  00E676  0E00               	movlw	0
  1250  00E678  6E05               	movwf	port1_send3byte@B^(0+1280),c
  1251  00E67A  ECD6  F073         	call	_port1_send3byte	;wreg free
  1252                           
  1253                           ;main.c: 221:             port1_send3byte(255,0,0);
  1254  00E67E  0E00               	movlw	0
  1255  00E680  6E02               	movwf	(port1_send3byte@R+1)^(0+1280),c
  1256  00E682  6801               	setf	port1_send3byte@R^(0+1280),c
  1257  00E684  0E00               	movlw	0
  1258  00E686  6E04               	movwf	(port1_send3byte@G+1)^(0+1280),c
  1259  00E688  0E00               	movlw	0
  1260  00E68A  6E03               	movwf	port1_send3byte@G^(0+1280),c
  1261  00E68C  0E00               	movlw	0
  1262  00E68E  6E06               	movwf	(port1_send3byte@B+1)^(0+1280),c
  1263  00E690  0E00               	movlw	0
  1264  00E692  6E05               	movwf	port1_send3byte@B^(0+1280),c
  1265  00E694  ECD6  F073         	call	_port1_send3byte	;wreg free
  1266                           
  1267                           ;main.c: 222:             port1_send3byte(255,0,0);
  1268  00E698  0E00               	movlw	0
  1269  00E69A  6E02               	movwf	(port1_send3byte@R+1)^(0+1280),c
  1270  00E69C  6801               	setf	port1_send3byte@R^(0+1280),c
  1271  00E69E  0E00               	movlw	0
  1272  00E6A0  6E04               	movwf	(port1_send3byte@G+1)^(0+1280),c
  1273  00E6A2  0E00               	movlw	0
  1274  00E6A4  6E03               	movwf	port1_send3byte@G^(0+1280),c
  1275  00E6A6  0E00               	movlw	0
  1276  00E6A8  6E06               	movwf	(port1_send3byte@B+1)^(0+1280),c
  1277  00E6AA  0E00               	movlw	0
  1278  00E6AC  6E05               	movwf	port1_send3byte@B^(0+1280),c
  1279  00E6AE  ECD6  F073         	call	_port1_send3byte	;wreg free
  1280  00E6B2                     
  1281                           ;main.c: 223:         }
  1282  00E6B2  4A0E               	infsnz	Red@i_282^(0+1280),f,c
  1283  00E6B4  2A0F               	incf	(Red@i_282+1)^(0+1280),f,c
  1284  00E6B6  BE0F               	btfsc	(Red@i_282+1)^(0+1280),7,c
  1285  00E6B8  EF67  F073         	goto	u2491
  1286  00E6BC  500F               	movf	(Red@i_282+1)^(0+1280),w,c
  1287  00E6BE  E109               	bnz	u2490
  1288  00E6C0  0E0A               	movlw	10
  1289  00E6C2  5C0E               	subwf	Red@i_282^(0+1280),w,c
  1290  00E6C4  A0D8               	btfss	status,0,c
  1291  00E6C6  EF67  F073         	goto	u2491
  1292  00E6CA  EF69  F073         	goto	u2490
  1293  00E6CE                     u2491:
  1294  00E6CE  EF0E  F073         	goto	l1332
  1295  00E6D2                     u2490:
  1296  00E6D2                     
  1297                           ;main.c: 225:         for(int i = 0;i < 10;i++){
  1298  00E6D2  0E00               	movlw	0
  1299  00E6D4  6E11               	movwf	(Red@i_283+1)^(0+1280),c
  1300  00E6D6  0E00               	movlw	0
  1301  00E6D8  6E10               	movwf	Red@i_283^(0+1280),c
  1302  00E6DA                     l1344:
  1303                           
  1304                           ;main.c: 226:             port2_send3byte(255,0,0);
  1305  00E6DA  0E00               	movlw	0
  1306  00E6DC  6E02               	movwf	(port2_send3byte@R+1)^(0+1280),c
  1307  00E6DE  6801               	setf	port2_send3byte@R^(0+1280),c
  1308  00E6E0  0E00               	movlw	0
  1309  00E6E2  6E04               	movwf	(port2_send3byte@G+1)^(0+1280),c
  1310  00E6E4  0E00               	movlw	0
  1311  00E6E6  6E03               	movwf	port2_send3byte@G^(0+1280),c
  1312  00E6E8  0E00               	movlw	0
  1313  00E6EA  6E06               	movwf	(port2_send3byte@B+1)^(0+1280),c
  1314  00E6EC  0E00               	movlw	0
  1315  00E6EE  6E05               	movwf	port2_send3byte@B^(0+1280),c
  1316  00E6F0  ECC5  F076         	call	_port2_send3byte	;wreg free
  1317                           
  1318                           ;main.c: 227:             port2_send3byte(255,0,0);
  1319  00E6F4  0E00               	movlw	0
  1320  00E6F6  6E02               	movwf	(port2_send3byte@R+1)^(0+1280),c
  1321  00E6F8  6801               	setf	port2_send3byte@R^(0+1280),c
  1322  00E6FA  0E00               	movlw	0
  1323  00E6FC  6E04               	movwf	(port2_send3byte@G+1)^(0+1280),c
  1324  00E6FE  0E00               	movlw	0
  1325  00E700  6E03               	movwf	port2_send3byte@G^(0+1280),c
  1326  00E702  0E00               	movlw	0
  1327  00E704  6E06               	movwf	(port2_send3byte@B+1)^(0+1280),c
  1328  00E706  0E00               	movlw	0
  1329  00E708  6E05               	movwf	port2_send3byte@B^(0+1280),c
  1330  00E70A  ECC5  F076         	call	_port2_send3byte	;wreg free
  1331                           
  1332                           ;main.c: 228:             port2_send3byte(255,0,0);
  1333  00E70E  0E00               	movlw	0
  1334  00E710  6E02               	movwf	(port2_send3byte@R+1)^(0+1280),c
  1335  00E712  6801               	setf	port2_send3byte@R^(0+1280),c
  1336  00E714  0E00               	movlw	0
  1337  00E716  6E04               	movwf	(port2_send3byte@G+1)^(0+1280),c
  1338  00E718  0E00               	movlw	0
  1339  00E71A  6E03               	movwf	port2_send3byte@G^(0+1280),c
  1340  00E71C  0E00               	movlw	0
  1341  00E71E  6E06               	movwf	(port2_send3byte@B+1)^(0+1280),c
  1342  00E720  0E00               	movlw	0
  1343  00E722  6E05               	movwf	port2_send3byte@B^(0+1280),c
  1344  00E724  ECC5  F076         	call	_port2_send3byte	;wreg free
  1345                           
  1346                           ;main.c: 229:             port2_send3byte(255,255,0);
  1347  00E728  0E00               	movlw	0
  1348  00E72A  6E02               	movwf	(port2_send3byte@R+1)^(0+1280),c
  1349  00E72C  6801               	setf	port2_send3byte@R^(0+1280),c
  1350  00E72E  0E00               	movlw	0
  1351  00E730  6E04               	movwf	(port2_send3byte@G+1)^(0+1280),c
  1352  00E732  6803               	setf	port2_send3byte@G^(0+1280),c
  1353  00E734  0E00               	movlw	0
  1354  00E736  6E06               	movwf	(port2_send3byte@B+1)^(0+1280),c
  1355  00E738  0E00               	movlw	0
  1356  00E73A  6E05               	movwf	port2_send3byte@B^(0+1280),c
  1357  00E73C  ECC5  F076         	call	_port2_send3byte	;wreg free
  1358                           
  1359                           ;main.c: 230:             port2_send3byte(255,255,0);
  1360  00E740  0E00               	movlw	0
  1361  00E742  6E02               	movwf	(port2_send3byte@R+1)^(0+1280),c
  1362  00E744  6801               	setf	port2_send3byte@R^(0+1280),c
  1363  00E746  0E00               	movlw	0
  1364  00E748  6E04               	movwf	(port2_send3byte@G+1)^(0+1280),c
  1365  00E74A  6803               	setf	port2_send3byte@G^(0+1280),c
  1366  00E74C  0E00               	movlw	0
  1367  00E74E  6E06               	movwf	(port2_send3byte@B+1)^(0+1280),c
  1368  00E750  0E00               	movlw	0
  1369  00E752  6E05               	movwf	port2_send3byte@B^(0+1280),c
  1370  00E754  ECC5  F076         	call	_port2_send3byte	;wreg free
  1371                           
  1372                           ;main.c: 231:             port2_send3byte(255,255,0);
  1373  00E758  0E00               	movlw	0
  1374  00E75A  6E02               	movwf	(port2_send3byte@R+1)^(0+1280),c
  1375  00E75C  6801               	setf	port2_send3byte@R^(0+1280),c
  1376  00E75E  0E00               	movlw	0
  1377  00E760  6E04               	movwf	(port2_send3byte@G+1)^(0+1280),c
  1378  00E762  6803               	setf	port2_send3byte@G^(0+1280),c
  1379  00E764  0E00               	movlw	0
  1380  00E766  6E06               	movwf	(port2_send3byte@B+1)^(0+1280),c
  1381  00E768  0E00               	movlw	0
  1382  00E76A  6E05               	movwf	port2_send3byte@B^(0+1280),c
  1383  00E76C  ECC5  F076         	call	_port2_send3byte	;wreg free
  1384  00E770                     
  1385                           ;main.c: 232:         }
  1386  00E770  4A10               	infsnz	Red@i_283^(0+1280),f,c
  1387  00E772  2A11               	incf	(Red@i_283+1)^(0+1280),f,c
  1388  00E774  BE11               	btfsc	(Red@i_283+1)^(0+1280),7,c
  1389  00E776  EFC6  F073         	goto	u2501
  1390  00E77A  5011               	movf	(Red@i_283+1)^(0+1280),w,c
  1391  00E77C  E109               	bnz	u2500
  1392  00E77E  0E0A               	movlw	10
  1393  00E780  5C10               	subwf	Red@i_283^(0+1280),w,c
  1394  00E782  A0D8               	btfss	status,0,c
  1395  00E784  EFC6  F073         	goto	u2501
  1396  00E788  EFC8  F073         	goto	u2500
  1397  00E78C                     u2501:
  1398  00E78C  EF6D  F073         	goto	l1344
  1399  00E790                     u2500:
  1400  00E790                     
  1401                           ;main.c: 234:         _delay((unsigned long)((150)*(40000000/4000.0)));
  1402  00E790  0E08               	movlw	8
  1403  00E792  6E09               	movwf	(??_Red+1)^(0+1280),c
  1404  00E794  0E9D               	movlw	157
  1405  00E796  6E08               	movwf	??_Red^(0+1280),c
  1406  00E798  0E06               	movlw	6
  1407  00E79A                     u2897:
  1408  00E79A  2EE8               	decfsz	wreg,f,c
  1409  00E79C  D7FE               	bra	u2897
  1410  00E79E  2E08               	decfsz	??_Red^(0+1280),f,c
  1411  00E7A0  D7FC               	bra	u2897
  1412  00E7A2  2E09               	decfsz	(??_Red+1)^(0+1280),f,c
  1413  00E7A4  D7FA               	bra	u2897
  1414  00E7A6  EF0F  F072         	goto	l153
  1415  00E7AA                     l166:
  1416  00E7AA  0012               	return		;funcret
  1417  00E7AC                     __end_of_Red:
  1418                           	callstack 0
  1419                           
  1420 ;; *************** function _Gaming *****************
  1421 ;; Defined at:
  1422 ;;		line 288 in file "main.c"
  1423 ;; Parameters:    Size  Location     Type
  1424 ;;		None
  1425 ;; Auto vars:     Size  Location     Type
  1426 ;;  i               2   35[COMRAM] int 
  1427 ;;  i               2   33[COMRAM] int 
  1428 ;;  i               2   31[COMRAM] int 
  1429 ;;  i               2   29[COMRAM] int 
  1430 ;;  i               2   27[COMRAM] int 
  1431 ;;  i               2   25[COMRAM] int 
  1432 ;;  i               2   23[COMRAM] int 
  1433 ;;  i               2   21[COMRAM] int 
  1434 ;;  i               2   19[COMRAM] int 
  1435 ;;  i               2   17[COMRAM] int 
  1436 ;;  i               2   15[COMRAM] int 
  1437 ;;  i               2   13[COMRAM] int 
  1438 ;;  i               2   11[COMRAM] int 
  1439 ;;  i               2    9[COMRAM] int 
  1440 ;; Return value:  Size  Location     Type
  1441 ;;                  1    wreg      void 
  1442 ;; Registers used:
  1443 ;;		wreg, fsr2l, fsr2h, status,2, status,0, pcl, pclath, pclatu, tosl, prodl, prodh, cstack
  1444 ;; Tracked objects:
  1445 ;;		On entry : 0/0
  1446 ;;		On exit  : 0/0
  1447 ;;		Unchanged: 0/0
  1448 ;; Data sizes:     COMRAM   BANK5   BANK6   BANK7   BANK8   BANK9  BANK10  BANK11  BANK12  BANK13  BANK14  BANK15  BANK1
      +6  BANK17  BANK18  BANK19  BANK20  BANK21  BANK22  BANK23  BANK24  BANK25  BANK26  BANK27  BANK28  BANK29  BANK30  BANK3
      +1  BANK32  BANK33  BANK34  BANK35  BANK36
  1449 ;;      Params:         0       0       0       0       0       0       0       0       0       0       0       0       
      +0       0       0       0       0       0       0       0       0       0       0       0       0       0       0       
      +0       0       0       0       0       0
  1450 ;;      Locals:        28       0       0       0       0       0       0       0       0       0       0       0       
      +0       0       0       0       0       0       0       0       0       0       0       0       0       0       0       
      +0       0       0       0       0       0
  1451 ;;      Temps:          2       0       0       0       0       0       0       0       0       0       0       0       
      +0       0       0       0       0       0       0       0       0       0       0       0       0       0       0       
      +0       0       0       0       0       0
  1452 ;;      Totals:        30       0       0       0       0       0       0       0       0       0       0       0       
      +0       0       0       0       0       0       0       0       0       0       0       0       0       0       0       
      +0       0       0       0       0       0
  1453 ;;Total ram usage:       30 bytes
  1454 ;; Hardware stack levels used: 1
  1455 ;; Hardware stack levels required when called: 2
  1456 ;; This function calls:
  1457 ;;		_port1_send3byte
  1458 ;;		_port2_send3byte
  1459 ;; This function is called by:
  1460 ;;		_main
  1461 ;; This function uses a non-reentrant model
  1462 ;;
  1463                           
  1464                           	psect	text6
  1465  00F368                     __ptext6:
  1466                           	callstack 0
  1467  00F368                     _Gaming:
  1468                           	callstack 124
  1469  00F368                     
  1470                           ;main.c: 289:     for(int i = 0;i < 10;i++){
  1471  00F368  0E00               	movlw	0
  1472  00F36A  6E0B               	movwf	(Gaming@i+1)^(0+1280),c
  1473  00F36C  0E00               	movlw	0
  1474  00F36E  6E0A               	movwf	Gaming@i^(0+1280),c
  1475  00F370                     l1418:
  1476                           
  1477                           ;main.c: 290:         port1_send3byte(255,0,0);
  1478  00F370  0E00               	movlw	0
  1479  00F372  6E02               	movwf	(port1_send3byte@R+1)^(0+1280),c
  1480  00F374  6801               	setf	port1_send3byte@R^(0+1280),c
  1481  00F376  0E00               	movlw	0
  1482  00F378  6E04               	movwf	(port1_send3byte@G+1)^(0+1280),c
  1483  00F37A  0E00               	movlw	0
  1484  00F37C  6E03               	movwf	port1_send3byte@G^(0+1280),c
  1485  00F37E  0E00               	movlw	0
  1486  00F380  6E06               	movwf	(port1_send3byte@B+1)^(0+1280),c
  1487  00F382  0E00               	movlw	0
  1488  00F384  6E05               	movwf	port1_send3byte@B^(0+1280),c
  1489  00F386  ECD6  F073         	call	_port1_send3byte	;wreg free
  1490                           
  1491                           ;main.c: 291:         port1_send3byte(255,165,0);
  1492  00F38A  0E00               	movlw	0
  1493  00F38C  6E02               	movwf	(port1_send3byte@R+1)^(0+1280),c
  1494  00F38E  6801               	setf	port1_send3byte@R^(0+1280),c
  1495  00F390  0E00               	movlw	0
  1496  00F392  6E04               	movwf	(port1_send3byte@G+1)^(0+1280),c
  1497  00F394  0EA5               	movlw	165
  1498  00F396  6E03               	movwf	port1_send3byte@G^(0+1280),c
  1499  00F398  0E00               	movlw	0
  1500  00F39A  6E06               	movwf	(port1_send3byte@B+1)^(0+1280),c
  1501  00F39C  0E00               	movlw	0
  1502  00F39E  6E05               	movwf	port1_send3byte@B^(0+1280),c
  1503  00F3A0  ECD6  F073         	call	_port1_send3byte	;wreg free
  1504                           
  1505                           ;main.c: 292:         port1_send3byte(255,255,0);
  1506  00F3A4  0E00               	movlw	0
  1507  00F3A6  6E02               	movwf	(port1_send3byte@R+1)^(0+1280),c
  1508  00F3A8  6801               	setf	port1_send3byte@R^(0+1280),c
  1509  00F3AA  0E00               	movlw	0
  1510  00F3AC  6E04               	movwf	(port1_send3byte@G+1)^(0+1280),c
  1511  00F3AE  6803               	setf	port1_send3byte@G^(0+1280),c
  1512  00F3B0  0E00               	movlw	0
  1513  00F3B2  6E06               	movwf	(port1_send3byte@B+1)^(0+1280),c
  1514  00F3B4  0E00               	movlw	0
  1515  00F3B6  6E05               	movwf	port1_send3byte@B^(0+1280),c
  1516  00F3B8  ECD6  F073         	call	_port1_send3byte	;wreg free
  1517                           
  1518                           ;main.c: 293:         port1_send3byte(0,255,0);
  1519  00F3BC  0E00               	movlw	0
  1520  00F3BE  6E02               	movwf	(port1_send3byte@R+1)^(0+1280),c
  1521  00F3C0  0E00               	movlw	0
  1522  00F3C2  6E01               	movwf	port1_send3byte@R^(0+1280),c
  1523  00F3C4  0E00               	movlw	0
  1524  00F3C6  6E04               	movwf	(port1_send3byte@G+1)^(0+1280),c
  1525  00F3C8  6803               	setf	port1_send3byte@G^(0+1280),c
  1526  00F3CA  0E00               	movlw	0
  1527  00F3CC  6E06               	movwf	(port1_send3byte@B+1)^(0+1280),c
  1528  00F3CE  0E00               	movlw	0
  1529  00F3D0  6E05               	movwf	port1_send3byte@B^(0+1280),c
  1530  00F3D2  ECD6  F073         	call	_port1_send3byte	;wreg free
  1531                           
  1532                           ;main.c: 294:         port1_send3byte(0,255,255);
  1533  00F3D6  0E00               	movlw	0
  1534  00F3D8  6E02               	movwf	(port1_send3byte@R+1)^(0+1280),c
  1535  00F3DA  0E00               	movlw	0
  1536  00F3DC  6E01               	movwf	port1_send3byte@R^(0+1280),c
  1537  00F3DE  0E00               	movlw	0
  1538  00F3E0  6E04               	movwf	(port1_send3byte@G+1)^(0+1280),c
  1539  00F3E2  6803               	setf	port1_send3byte@G^(0+1280),c
  1540  00F3E4  0E00               	movlw	0
  1541  00F3E6  6E06               	movwf	(port1_send3byte@B+1)^(0+1280),c
  1542  00F3E8  6805               	setf	port1_send3byte@B^(0+1280),c
  1543  00F3EA  ECD6  F073         	call	_port1_send3byte	;wreg free
  1544                           
  1545                           ;main.c: 295:         port1_send3byte(0,0,255);
  1546  00F3EE  0E00               	movlw	0
  1547  00F3F0  6E02               	movwf	(port1_send3byte@R+1)^(0+1280),c
  1548  00F3F2  0E00               	movlw	0
  1549  00F3F4  6E01               	movwf	port1_send3byte@R^(0+1280),c
  1550  00F3F6  0E00               	movlw	0
  1551  00F3F8  6E04               	movwf	(port1_send3byte@G+1)^(0+1280),c
  1552  00F3FA  0E00               	movlw	0
  1553  00F3FC  6E03               	movwf	port1_send3byte@G^(0+1280),c
  1554  00F3FE  0E00               	movlw	0
  1555  00F400  6E06               	movwf	(port1_send3byte@B+1)^(0+1280),c
  1556  00F402  6805               	setf	port1_send3byte@B^(0+1280),c
  1557  00F404  ECD6  F073         	call	_port1_send3byte	;wreg free
  1558                           
  1559                           ;main.c: 296:         port1_send3byte(255,0,255);
  1560  00F408  0E00               	movlw	0
  1561  00F40A  6E02               	movwf	(port1_send3byte@R+1)^(0+1280),c
  1562  00F40C  6801               	setf	port1_send3byte@R^(0+1280),c
  1563  00F40E  0E00               	movlw	0
  1564  00F410  6E04               	movwf	(port1_send3byte@G+1)^(0+1280),c
  1565  00F412  0E00               	movlw	0
  1566  00F414  6E03               	movwf	port1_send3byte@G^(0+1280),c
  1567  00F416  0E00               	movlw	0
  1568  00F418  6E06               	movwf	(port1_send3byte@B+1)^(0+1280),c
  1569  00F41A  6805               	setf	port1_send3byte@B^(0+1280),c
  1570  00F41C  ECD6  F073         	call	_port1_send3byte	;wreg free
  1571  00F420                     
  1572                           ;main.c: 297:     }
  1573  00F420  4A0A               	infsnz	Gaming@i^(0+1280),f,c
  1574  00F422  2A0B               	incf	(Gaming@i+1)^(0+1280),f,c
  1575  00F424  BE0B               	btfsc	(Gaming@i+1)^(0+1280),7,c
  1576  00F426  EF1E  F07A         	goto	u2611
  1577  00F42A  500B               	movf	(Gaming@i+1)^(0+1280),w,c
  1578  00F42C  E109               	bnz	u2610
  1579  00F42E  0E0A               	movlw	10
  1580  00F430  5C0A               	subwf	Gaming@i^(0+1280),w,c
  1581  00F432  A0D8               	btfss	status,0,c
  1582  00F434  EF1E  F07A         	goto	u2611
  1583  00F438  EF20  F07A         	goto	u2610
  1584  00F43C                     u2611:
  1585  00F43C  EFB8  F079         	goto	l1418
  1586  00F440                     u2610:
  1587  00F440                     
  1588                           ;main.c: 299:     for(int i = 0;i < 10;i++){
  1589  00F440  0E00               	movlw	0
  1590  00F442  6E0D               	movwf	(Gaming@i_291+1)^(0+1280),c
  1591  00F444  0E00               	movlw	0
  1592  00F446  6E0C               	movwf	Gaming@i_291^(0+1280),c
  1593  00F448                     l1430:
  1594                           
  1595                           ;main.c: 300:         port2_send3byte(255,0,0);
  1596  00F448  0E00               	movlw	0
  1597  00F44A  6E02               	movwf	(port2_send3byte@R+1)^(0+1280),c
  1598  00F44C  6801               	setf	port2_send3byte@R^(0+1280),c
  1599  00F44E  0E00               	movlw	0
  1600  00F450  6E04               	movwf	(port2_send3byte@G+1)^(0+1280),c
  1601  00F452  0E00               	movlw	0
  1602  00F454  6E03               	movwf	port2_send3byte@G^(0+1280),c
  1603  00F456  0E00               	movlw	0
  1604  00F458  6E06               	movwf	(port2_send3byte@B+1)^(0+1280),c
  1605  00F45A  0E00               	movlw	0
  1606  00F45C  6E05               	movwf	port2_send3byte@B^(0+1280),c
  1607  00F45E  ECC5  F076         	call	_port2_send3byte	;wreg free
  1608                           
  1609                           ;main.c: 301:         port2_send3byte(255,165,0);
  1610  00F462  0E00               	movlw	0
  1611  00F464  6E02               	movwf	(port2_send3byte@R+1)^(0+1280),c
  1612  00F466  6801               	setf	port2_send3byte@R^(0+1280),c
  1613  00F468  0E00               	movlw	0
  1614  00F46A  6E04               	movwf	(port2_send3byte@G+1)^(0+1280),c
  1615  00F46C  0EA5               	movlw	165
  1616  00F46E  6E03               	movwf	port2_send3byte@G^(0+1280),c
  1617  00F470  0E00               	movlw	0
  1618  00F472  6E06               	movwf	(port2_send3byte@B+1)^(0+1280),c
  1619  00F474  0E00               	movlw	0
  1620  00F476  6E05               	movwf	port2_send3byte@B^(0+1280),c
  1621  00F478  ECC5  F076         	call	_port2_send3byte	;wreg free
  1622                           
  1623                           ;main.c: 302:         port2_send3byte(255,255,0);
  1624  00F47C  0E00               	movlw	0
  1625  00F47E  6E02               	movwf	(port2_send3byte@R+1)^(0+1280),c
  1626  00F480  6801               	setf	port2_send3byte@R^(0+1280),c
  1627  00F482  0E00               	movlw	0
  1628  00F484  6E04               	movwf	(port2_send3byte@G+1)^(0+1280),c
  1629  00F486  6803               	setf	port2_send3byte@G^(0+1280),c
  1630  00F488  0E00               	movlw	0
  1631  00F48A  6E06               	movwf	(port2_send3byte@B+1)^(0+1280),c
  1632  00F48C  0E00               	movlw	0
  1633  00F48E  6E05               	movwf	port2_send3byte@B^(0+1280),c
  1634  00F490  ECC5  F076         	call	_port2_send3byte	;wreg free
  1635                           
  1636                           ;main.c: 303:         port2_send3byte(0,255,0);
  1637  00F494  0E00               	movlw	0
  1638  00F496  6E02               	movwf	(port2_send3byte@R+1)^(0+1280),c
  1639  00F498  0E00               	movlw	0
  1640  00F49A  6E01               	movwf	port2_send3byte@R^(0+1280),c
  1641  00F49C  0E00               	movlw	0
  1642  00F49E  6E04               	movwf	(port2_send3byte@G+1)^(0+1280),c
  1643  00F4A0  6803               	setf	port2_send3byte@G^(0+1280),c
  1644  00F4A2  0E00               	movlw	0
  1645  00F4A4  6E06               	movwf	(port2_send3byte@B+1)^(0+1280),c
  1646  00F4A6  0E00               	movlw	0
  1647  00F4A8  6E05               	movwf	port2_send3byte@B^(0+1280),c
  1648  00F4AA  ECC5  F076         	call	_port2_send3byte	;wreg free
  1649                           
  1650                           ;main.c: 304:         port2_send3byte(0,255,255);
  1651  00F4AE  0E00               	movlw	0
  1652  00F4B0  6E02               	movwf	(port2_send3byte@R+1)^(0+1280),c
  1653  00F4B2  0E00               	movlw	0
  1654  00F4B4  6E01               	movwf	port2_send3byte@R^(0+1280),c
  1655  00F4B6  0E00               	movlw	0
  1656  00F4B8  6E04               	movwf	(port2_send3byte@G+1)^(0+1280),c
  1657  00F4BA  6803               	setf	port2_send3byte@G^(0+1280),c
  1658  00F4BC  0E00               	movlw	0
  1659  00F4BE  6E06               	movwf	(port2_send3byte@B+1)^(0+1280),c
  1660  00F4C0  6805               	setf	port2_send3byte@B^(0+1280),c
  1661  00F4C2  ECC5  F076         	call	_port2_send3byte	;wreg free
  1662                           
  1663                           ;main.c: 305:         port2_send3byte(0,0,255);
  1664  00F4C6  0E00               	movlw	0
  1665  00F4C8  6E02               	movwf	(port2_send3byte@R+1)^(0+1280),c
  1666  00F4CA  0E00               	movlw	0
  1667  00F4CC  6E01               	movwf	port2_send3byte@R^(0+1280),c
  1668  00F4CE  0E00               	movlw	0
  1669  00F4D0  6E04               	movwf	(port2_send3byte@G+1)^(0+1280),c
  1670  00F4D2  0E00               	movlw	0
  1671  00F4D4  6E03               	movwf	port2_send3byte@G^(0+1280),c
  1672  00F4D6  0E00               	movlw	0
  1673  00F4D8  6E06               	movwf	(port2_send3byte@B+1)^(0+1280),c
  1674  00F4DA  6805               	setf	port2_send3byte@B^(0+1280),c
  1675  00F4DC  ECC5  F076         	call	_port2_send3byte	;wreg free
  1676                           
  1677                           ;main.c: 306:         port2_send3byte(255,0,255);
  1678  00F4E0  0E00               	movlw	0
  1679  00F4E2  6E02               	movwf	(port2_send3byte@R+1)^(0+1280),c
  1680  00F4E4  6801               	setf	port2_send3byte@R^(0+1280),c
  1681  00F4E6  0E00               	movlw	0
  1682  00F4E8  6E04               	movwf	(port2_send3byte@G+1)^(0+1280),c
  1683  00F4EA  0E00               	movlw	0
  1684  00F4EC  6E03               	movwf	port2_send3byte@G^(0+1280),c
  1685  00F4EE  0E00               	movlw	0
  1686  00F4F0  6E06               	movwf	(port2_send3byte@B+1)^(0+1280),c
  1687  00F4F2  6805               	setf	port2_send3byte@B^(0+1280),c
  1688  00F4F4  ECC5  F076         	call	_port2_send3byte	;wreg free
  1689  00F4F8                     
  1690                           ;main.c: 307:     }
  1691  00F4F8  4A0C               	infsnz	Gaming@i_291^(0+1280),f,c
  1692  00F4FA  2A0D               	incf	(Gaming@i_291+1)^(0+1280),f,c
  1693  00F4FC  BE0D               	btfsc	(Gaming@i_291+1)^(0+1280),7,c
  1694  00F4FE  EF8A  F07A         	goto	u2621
  1695  00F502  500D               	movf	(Gaming@i_291+1)^(0+1280),w,c
  1696  00F504  E109               	bnz	u2620
  1697  00F506  0E0A               	movlw	10
  1698  00F508  5C0C               	subwf	Gaming@i_291^(0+1280),w,c
  1699  00F50A  A0D8               	btfss	status,0,c
  1700  00F50C  EF8A  F07A         	goto	u2621
  1701  00F510  EF8C  F07A         	goto	u2620
  1702  00F514                     u2621:
  1703  00F514  EF24  F07A         	goto	l1430
  1704  00F518                     u2620:
  1705  00F518                     
  1706                           ;main.c: 309:     _delay((unsigned long)((50)*(40000000/4000.0)));
  1707  00F518  0E03               	movlw	3
  1708  00F51A  6E09               	movwf	(??_Gaming+1)^(0+1280),c
  1709  00F51C  0E8A               	movlw	138
  1710  00F51E  6E08               	movwf	??_Gaming^(0+1280),c
  1711  00F520  0E56               	movlw	86
  1712  00F522                     u2907:
  1713  00F522  2EE8               	decfsz	wreg,f,c
  1714  00F524  D7FE               	bra	u2907
  1715  00F526  2E08               	decfsz	??_Gaming^(0+1280),f,c
  1716  00F528  D7FC               	bra	u2907
  1717  00F52A  2E09               	decfsz	(??_Gaming+1)^(0+1280),f,c
  1718  00F52C  D7FA               	bra	u2907
  1719  00F52E                     
  1720                           ;main.c: 311:     for(int i = 0;i < 10;i++){
  1721  00F52E  0E00               	movlw	0
  1722  00F530  6E0F               	movwf	(Gaming@i_292+1)^(0+1280),c
  1723  00F532  0E00               	movlw	0
  1724  00F534  6E0E               	movwf	Gaming@i_292^(0+1280),c
  1725  00F536                     l1444:
  1726                           
  1727                           ;main.c: 312:         port1_send3byte(255,165,0);
  1728  00F536  0E00               	movlw	0
  1729  00F538  6E02               	movwf	(port1_send3byte@R+1)^(0+1280),c
  1730  00F53A  6801               	setf	port1_send3byte@R^(0+1280),c
  1731  00F53C  0E00               	movlw	0
  1732  00F53E  6E04               	movwf	(port1_send3byte@G+1)^(0+1280),c
  1733  00F540  0EA5               	movlw	165
  1734  00F542  6E03               	movwf	port1_send3byte@G^(0+1280),c
  1735  00F544  0E00               	movlw	0
  1736  00F546  6E06               	movwf	(port1_send3byte@B+1)^(0+1280),c
  1737  00F548  0E00               	movlw	0
  1738  00F54A  6E05               	movwf	port1_send3byte@B^(0+1280),c
  1739  00F54C  ECD6  F073         	call	_port1_send3byte	;wreg free
  1740                           
  1741                           ;main.c: 313:         port1_send3byte(255,255,0);
  1742  00F550  0E00               	movlw	0
  1743  00F552  6E02               	movwf	(port1_send3byte@R+1)^(0+1280),c
  1744  00F554  6801               	setf	port1_send3byte@R^(0+1280),c
  1745  00F556  0E00               	movlw	0
  1746  00F558  6E04               	movwf	(port1_send3byte@G+1)^(0+1280),c
  1747  00F55A  6803               	setf	port1_send3byte@G^(0+1280),c
  1748  00F55C  0E00               	movlw	0
  1749  00F55E  6E06               	movwf	(port1_send3byte@B+1)^(0+1280),c
  1750  00F560  0E00               	movlw	0
  1751  00F562  6E05               	movwf	port1_send3byte@B^(0+1280),c
  1752  00F564  ECD6  F073         	call	_port1_send3byte	;wreg free
  1753                           
  1754                           ;main.c: 314:         port1_send3byte(0,255,0);
  1755  00F568  0E00               	movlw	0
  1756  00F56A  6E02               	movwf	(port1_send3byte@R+1)^(0+1280),c
  1757  00F56C  0E00               	movlw	0
  1758  00F56E  6E01               	movwf	port1_send3byte@R^(0+1280),c
  1759  00F570  0E00               	movlw	0
  1760  00F572  6E04               	movwf	(port1_send3byte@G+1)^(0+1280),c
  1761  00F574  6803               	setf	port1_send3byte@G^(0+1280),c
  1762  00F576  0E00               	movlw	0
  1763  00F578  6E06               	movwf	(port1_send3byte@B+1)^(0+1280),c
  1764  00F57A  0E00               	movlw	0
  1765  00F57C  6E05               	movwf	port1_send3byte@B^(0+1280),c
  1766  00F57E  ECD6  F073         	call	_port1_send3byte	;wreg free
  1767                           
  1768                           ;main.c: 315:         port1_send3byte(0,255,255);
  1769  00F582  0E00               	movlw	0
  1770  00F584  6E02               	movwf	(port1_send3byte@R+1)^(0+1280),c
  1771  00F586  0E00               	movlw	0
  1772  00F588  6E01               	movwf	port1_send3byte@R^(0+1280),c
  1773  00F58A  0E00               	movlw	0
  1774  00F58C  6E04               	movwf	(port1_send3byte@G+1)^(0+1280),c
  1775  00F58E  6803               	setf	port1_send3byte@G^(0+1280),c
  1776  00F590  0E00               	movlw	0
  1777  00F592  6E06               	movwf	(port1_send3byte@B+1)^(0+1280),c
  1778  00F594  6805               	setf	port1_send3byte@B^(0+1280),c
  1779  00F596  ECD6  F073         	call	_port1_send3byte	;wreg free
  1780                           
  1781                           ;main.c: 316:         port1_send3byte(0,0,255);
  1782  00F59A  0E00               	movlw	0
  1783  00F59C  6E02               	movwf	(port1_send3byte@R+1)^(0+1280),c
  1784  00F59E  0E00               	movlw	0
  1785  00F5A0  6E01               	movwf	port1_send3byte@R^(0+1280),c
  1786  00F5A2  0E00               	movlw	0
  1787  00F5A4  6E04               	movwf	(port1_send3byte@G+1)^(0+1280),c
  1788  00F5A6  0E00               	movlw	0
  1789  00F5A8  6E03               	movwf	port1_send3byte@G^(0+1280),c
  1790  00F5AA  0E00               	movlw	0
  1791  00F5AC  6E06               	movwf	(port1_send3byte@B+1)^(0+1280),c
  1792  00F5AE  6805               	setf	port1_send3byte@B^(0+1280),c
  1793  00F5B0  ECD6  F073         	call	_port1_send3byte	;wreg free
  1794                           
  1795                           ;main.c: 317:         port1_send3byte(255,0,255);
  1796  00F5B4  0E00               	movlw	0
  1797  00F5B6  6E02               	movwf	(port1_send3byte@R+1)^(0+1280),c
  1798  00F5B8  6801               	setf	port1_send3byte@R^(0+1280),c
  1799  00F5BA  0E00               	movlw	0
  1800  00F5BC  6E04               	movwf	(port1_send3byte@G+1)^(0+1280),c
  1801  00F5BE  0E00               	movlw	0
  1802  00F5C0  6E03               	movwf	port1_send3byte@G^(0+1280),c
  1803  00F5C2  0E00               	movlw	0
  1804  00F5C4  6E06               	movwf	(port1_send3byte@B+1)^(0+1280),c
  1805  00F5C6  6805               	setf	port1_send3byte@B^(0+1280),c
  1806  00F5C8  ECD6  F073         	call	_port1_send3byte	;wreg free
  1807                           
  1808                           ;main.c: 318:         port1_send3byte(255,0,0);
  1809  00F5CC  0E00               	movlw	0
  1810  00F5CE  6E02               	movwf	(port1_send3byte@R+1)^(0+1280),c
  1811  00F5D0  6801               	setf	port1_send3byte@R^(0+1280),c
  1812  00F5D2  0E00               	movlw	0
  1813  00F5D4  6E04               	movwf	(port1_send3byte@G+1)^(0+1280),c
  1814  00F5D6  0E00               	movlw	0
  1815  00F5D8  6E03               	movwf	port1_send3byte@G^(0+1280),c
  1816  00F5DA  0E00               	movlw	0
  1817  00F5DC  6E06               	movwf	(port1_send3byte@B+1)^(0+1280),c
  1818  00F5DE  0E00               	movlw	0
  1819  00F5E0  6E05               	movwf	port1_send3byte@B^(0+1280),c
  1820  00F5E2  ECD6  F073         	call	_port1_send3byte	;wreg free
  1821  00F5E6                     
  1822                           ;main.c: 319:     }
  1823  00F5E6  4A0E               	infsnz	Gaming@i_292^(0+1280),f,c
  1824  00F5E8  2A0F               	incf	(Gaming@i_292+1)^(0+1280),f,c
  1825  00F5EA  BE0F               	btfsc	(Gaming@i_292+1)^(0+1280),7,c
  1826  00F5EC  EF01  F07B         	goto	u2631
  1827  00F5F0  500F               	movf	(Gaming@i_292+1)^(0+1280),w,c
  1828  00F5F2  E109               	bnz	u2630
  1829  00F5F4  0E0A               	movlw	10
  1830  00F5F6  5C0E               	subwf	Gaming@i_292^(0+1280),w,c
  1831  00F5F8  A0D8               	btfss	status,0,c
  1832  00F5FA  EF01  F07B         	goto	u2631
  1833  00F5FE  EF03  F07B         	goto	u2630
  1834  00F602                     u2631:
  1835  00F602  EF9B  F07A         	goto	l1444
  1836  00F606                     u2630:
  1837  00F606                     
  1838                           ;main.c: 321:     for(int i = 0;i < 10;i++){
  1839  00F606  0E00               	movlw	0
  1840  00F608  6E11               	movwf	(Gaming@i_293+1)^(0+1280),c
  1841  00F60A  0E00               	movlw	0
  1842  00F60C  6E10               	movwf	Gaming@i_293^(0+1280),c
  1843  00F60E                     l1456:
  1844                           
  1845                           ;main.c: 322:         port2_send3byte(255,165,0);
  1846  00F60E  0E00               	movlw	0
  1847  00F610  6E02               	movwf	(port2_send3byte@R+1)^(0+1280),c
  1848  00F612  6801               	setf	port2_send3byte@R^(0+1280),c
  1849  00F614  0E00               	movlw	0
  1850  00F616  6E04               	movwf	(port2_send3byte@G+1)^(0+1280),c
  1851  00F618  0EA5               	movlw	165
  1852  00F61A  6E03               	movwf	port2_send3byte@G^(0+1280),c
  1853  00F61C  0E00               	movlw	0
  1854  00F61E  6E06               	movwf	(port2_send3byte@B+1)^(0+1280),c
  1855  00F620  0E00               	movlw	0
  1856  00F622  6E05               	movwf	port2_send3byte@B^(0+1280),c
  1857  00F624  ECC5  F076         	call	_port2_send3byte	;wreg free
  1858                           
  1859                           ;main.c: 323:         port2_send3byte(255,255,0);
  1860  00F628  0E00               	movlw	0
  1861  00F62A  6E02               	movwf	(port2_send3byte@R+1)^(0+1280),c
  1862  00F62C  6801               	setf	port2_send3byte@R^(0+1280),c
  1863  00F62E  0E00               	movlw	0
  1864  00F630  6E04               	movwf	(port2_send3byte@G+1)^(0+1280),c
  1865  00F632  6803               	setf	port2_send3byte@G^(0+1280),c
  1866  00F634  0E00               	movlw	0
  1867  00F636  6E06               	movwf	(port2_send3byte@B+1)^(0+1280),c
  1868  00F638  0E00               	movlw	0
  1869  00F63A  6E05               	movwf	port2_send3byte@B^(0+1280),c
  1870  00F63C  ECC5  F076         	call	_port2_send3byte	;wreg free
  1871                           
  1872                           ;main.c: 324:         port2_send3byte(0,255,0);
  1873  00F640  0E00               	movlw	0
  1874  00F642  6E02               	movwf	(port2_send3byte@R+1)^(0+1280),c
  1875  00F644  0E00               	movlw	0
  1876  00F646  6E01               	movwf	port2_send3byte@R^(0+1280),c
  1877  00F648  0E00               	movlw	0
  1878  00F64A  6E04               	movwf	(port2_send3byte@G+1)^(0+1280),c
  1879  00F64C  6803               	setf	port2_send3byte@G^(0+1280),c
  1880  00F64E  0E00               	movlw	0
  1881  00F650  6E06               	movwf	(port2_send3byte@B+1)^(0+1280),c
  1882  00F652  0E00               	movlw	0
  1883  00F654  6E05               	movwf	port2_send3byte@B^(0+1280),c
  1884  00F656  ECC5  F076         	call	_port2_send3byte	;wreg free
  1885                           
  1886                           ;main.c: 325:         port2_send3byte(0,255,255);
  1887  00F65A  0E00               	movlw	0
  1888  00F65C  6E02               	movwf	(port2_send3byte@R+1)^(0+1280),c
  1889  00F65E  0E00               	movlw	0
  1890  00F660  6E01               	movwf	port2_send3byte@R^(0+1280),c
  1891  00F662  0E00               	movlw	0
  1892  00F664  6E04               	movwf	(port2_send3byte@G+1)^(0+1280),c
  1893  00F666  6803               	setf	port2_send3byte@G^(0+1280),c
  1894  00F668  0E00               	movlw	0
  1895  00F66A  6E06               	movwf	(port2_send3byte@B+1)^(0+1280),c
  1896  00F66C  6805               	setf	port2_send3byte@B^(0+1280),c
  1897  00F66E  ECC5  F076         	call	_port2_send3byte	;wreg free
  1898                           
  1899                           ;main.c: 326:         port2_send3byte(0,0,255);
  1900  00F672  0E00               	movlw	0
  1901  00F674  6E02               	movwf	(port2_send3byte@R+1)^(0+1280),c
  1902  00F676  0E00               	movlw	0
  1903  00F678  6E01               	movwf	port2_send3byte@R^(0+1280),c
  1904  00F67A  0E00               	movlw	0
  1905  00F67C  6E04               	movwf	(port2_send3byte@G+1)^(0+1280),c
  1906  00F67E  0E00               	movlw	0
  1907  00F680  6E03               	movwf	port2_send3byte@G^(0+1280),c
  1908  00F682  0E00               	movlw	0
  1909  00F684  6E06               	movwf	(port2_send3byte@B+1)^(0+1280),c
  1910  00F686  6805               	setf	port2_send3byte@B^(0+1280),c
  1911  00F688  ECC5  F076         	call	_port2_send3byte	;wreg free
  1912                           
  1913                           ;main.c: 327:         port2_send3byte(255,0,255);
  1914  00F68C  0E00               	movlw	0
  1915  00F68E  6E02               	movwf	(port2_send3byte@R+1)^(0+1280),c
  1916  00F690  6801               	setf	port2_send3byte@R^(0+1280),c
  1917  00F692  0E00               	movlw	0
  1918  00F694  6E04               	movwf	(port2_send3byte@G+1)^(0+1280),c
  1919  00F696  0E00               	movlw	0
  1920  00F698  6E03               	movwf	port2_send3byte@G^(0+1280),c
  1921  00F69A  0E00               	movlw	0
  1922  00F69C  6E06               	movwf	(port2_send3byte@B+1)^(0+1280),c
  1923  00F69E  6805               	setf	port2_send3byte@B^(0+1280),c
  1924  00F6A0  ECC5  F076         	call	_port2_send3byte	;wreg free
  1925                           
  1926                           ;main.c: 328:         port2_send3byte(255,0,0);
  1927  00F6A4  0E00               	movlw	0
  1928  00F6A6  6E02               	movwf	(port2_send3byte@R+1)^(0+1280),c
  1929  00F6A8  6801               	setf	port2_send3byte@R^(0+1280),c
  1930  00F6AA  0E00               	movlw	0
  1931  00F6AC  6E04               	movwf	(port2_send3byte@G+1)^(0+1280),c
  1932  00F6AE  0E00               	movlw	0
  1933  00F6B0  6E03               	movwf	port2_send3byte@G^(0+1280),c
  1934  00F6B2  0E00               	movlw	0
  1935  00F6B4  6E06               	movwf	(port2_send3byte@B+1)^(0+1280),c
  1936  00F6B6  0E00               	movlw	0
  1937  00F6B8  6E05               	movwf	port2_send3byte@B^(0+1280),c
  1938  00F6BA  ECC5  F076         	call	_port2_send3byte	;wreg free
  1939  00F6BE                     
  1940                           ;main.c: 329:     }
  1941  00F6BE  4A10               	infsnz	Gaming@i_293^(0+1280),f,c
  1942  00F6C0  2A11               	incf	(Gaming@i_293+1)^(0+1280),f,c
  1943  00F6C2  BE11               	btfsc	(Gaming@i_293+1)^(0+1280),7,c
  1944  00F6C4  EF6D  F07B         	goto	u2641
  1945  00F6C8  5011               	movf	(Gaming@i_293+1)^(0+1280),w,c
  1946  00F6CA  E109               	bnz	u2640
  1947  00F6CC  0E0A               	movlw	10
  1948  00F6CE  5C10               	subwf	Gaming@i_293^(0+1280),w,c
  1949  00F6D0  A0D8               	btfss	status,0,c
  1950  00F6D2  EF6D  F07B         	goto	u2641
  1951  00F6D6  EF6F  F07B         	goto	u2640
  1952  00F6DA                     u2641:
  1953  00F6DA  EF07  F07B         	goto	l1456
  1954  00F6DE                     u2640:
  1955  00F6DE                     
  1956                           ;main.c: 331:     _delay((unsigned long)((50)*(40000000/4000.0)));
  1957  00F6DE  0E03               	movlw	3
  1958  00F6E0  6E09               	movwf	(??_Gaming+1)^(0+1280),c
  1959  00F6E2  0E8A               	movlw	138
  1960  00F6E4  6E08               	movwf	??_Gaming^(0+1280),c
  1961  00F6E6  0E56               	movlw	86
  1962  00F6E8                     u2917:
  1963  00F6E8  2EE8               	decfsz	wreg,f,c
  1964  00F6EA  D7FE               	bra	u2917
  1965  00F6EC  2E08               	decfsz	??_Gaming^(0+1280),f,c
  1966  00F6EE  D7FC               	bra	u2917
  1967  00F6F0  2E09               	decfsz	(??_Gaming+1)^(0+1280),f,c
  1968  00F6F2  D7FA               	bra	u2917
  1969  00F6F4                     
  1970                           ;main.c: 333:     for(int i = 0;i < 10;i++){
  1971  00F6F4  0E00               	movlw	0
  1972  00F6F6  6E13               	movwf	(Gaming@i_294+1)^(0+1280),c
  1973  00F6F8  0E00               	movlw	0
  1974  00F6FA  6E12               	movwf	Gaming@i_294^(0+1280),c
  1975  00F6FC                     l1470:
  1976                           
  1977                           ;main.c: 334:         port1_send3byte(255,255,0);
  1978  00F6FC  0E00               	movlw	0
  1979  00F6FE  6E02               	movwf	(port1_send3byte@R+1)^(0+1280),c
  1980  00F700  6801               	setf	port1_send3byte@R^(0+1280),c
  1981  00F702  0E00               	movlw	0
  1982  00F704  6E04               	movwf	(port1_send3byte@G+1)^(0+1280),c
  1983  00F706  6803               	setf	port1_send3byte@G^(0+1280),c
  1984  00F708  0E00               	movlw	0
  1985  00F70A  6E06               	movwf	(port1_send3byte@B+1)^(0+1280),c
  1986  00F70C  0E00               	movlw	0
  1987  00F70E  6E05               	movwf	port1_send3byte@B^(0+1280),c
  1988  00F710  ECD6  F073         	call	_port1_send3byte	;wreg free
  1989                           
  1990                           ;main.c: 335:         port1_send3byte(0,255,0);
  1991  00F714  0E00               	movlw	0
  1992  00F716  6E02               	movwf	(port1_send3byte@R+1)^(0+1280),c
  1993  00F718  0E00               	movlw	0
  1994  00F71A  6E01               	movwf	port1_send3byte@R^(0+1280),c
  1995  00F71C  0E00               	movlw	0
  1996  00F71E  6E04               	movwf	(port1_send3byte@G+1)^(0+1280),c
  1997  00F720  6803               	setf	port1_send3byte@G^(0+1280),c
  1998  00F722  0E00               	movlw	0
  1999  00F724  6E06               	movwf	(port1_send3byte@B+1)^(0+1280),c
  2000  00F726  0E00               	movlw	0
  2001  00F728  6E05               	movwf	port1_send3byte@B^(0+1280),c
  2002  00F72A  ECD6  F073         	call	_port1_send3byte	;wreg free
  2003                           
  2004                           ;main.c: 336:         port1_send3byte(0,255,255);
  2005  00F72E  0E00               	movlw	0
  2006  00F730  6E02               	movwf	(port1_send3byte@R+1)^(0+1280),c
  2007  00F732  0E00               	movlw	0
  2008  00F734  6E01               	movwf	port1_send3byte@R^(0+1280),c
  2009  00F736  0E00               	movlw	0
  2010  00F738  6E04               	movwf	(port1_send3byte@G+1)^(0+1280),c
  2011  00F73A  6803               	setf	port1_send3byte@G^(0+1280),c
  2012  00F73C  0E00               	movlw	0
  2013  00F73E  6E06               	movwf	(port1_send3byte@B+1)^(0+1280),c
  2014  00F740  6805               	setf	port1_send3byte@B^(0+1280),c
  2015  00F742  ECD6  F073         	call	_port1_send3byte	;wreg free
  2016                           
  2017                           ;main.c: 337:         port1_send3byte(0,0,255);
  2018  00F746  0E00               	movlw	0
  2019  00F748  6E02               	movwf	(port1_send3byte@R+1)^(0+1280),c
  2020  00F74A  0E00               	movlw	0
  2021  00F74C  6E01               	movwf	port1_send3byte@R^(0+1280),c
  2022  00F74E  0E00               	movlw	0
  2023  00F750  6E04               	movwf	(port1_send3byte@G+1)^(0+1280),c
  2024  00F752  0E00               	movlw	0
  2025  00F754  6E03               	movwf	port1_send3byte@G^(0+1280),c
  2026  00F756  0E00               	movlw	0
  2027  00F758  6E06               	movwf	(port1_send3byte@B+1)^(0+1280),c
  2028  00F75A  6805               	setf	port1_send3byte@B^(0+1280),c
  2029  00F75C  ECD6  F073         	call	_port1_send3byte	;wreg free
  2030                           
  2031                           ;main.c: 338:         port1_send3byte(255,0,255);
  2032  00F760  0E00               	movlw	0
  2033  00F762  6E02               	movwf	(port1_send3byte@R+1)^(0+1280),c
  2034  00F764  6801               	setf	port1_send3byte@R^(0+1280),c
  2035  00F766  0E00               	movlw	0
  2036  00F768  6E04               	movwf	(port1_send3byte@G+1)^(0+1280),c
  2037  00F76A  0E00               	movlw	0
  2038  00F76C  6E03               	movwf	port1_send3byte@G^(0+1280),c
  2039  00F76E  0E00               	movlw	0
  2040  00F770  6E06               	movwf	(port1_send3byte@B+1)^(0+1280),c
  2041  00F772  6805               	setf	port1_send3byte@B^(0+1280),c
  2042  00F774  ECD6  F073         	call	_port1_send3byte	;wreg free
  2043                           
  2044                           ;main.c: 339:         port1_send3byte(255,0,0);
  2045  00F778  0E00               	movlw	0
  2046  00F77A  6E02               	movwf	(port1_send3byte@R+1)^(0+1280),c
  2047  00F77C  6801               	setf	port1_send3byte@R^(0+1280),c
  2048  00F77E  0E00               	movlw	0
  2049  00F780  6E04               	movwf	(port1_send3byte@G+1)^(0+1280),c
  2050  00F782  0E00               	movlw	0
  2051  00F784  6E03               	movwf	port1_send3byte@G^(0+1280),c
  2052  00F786  0E00               	movlw	0
  2053  00F788  6E06               	movwf	(port1_send3byte@B+1)^(0+1280),c
  2054  00F78A  0E00               	movlw	0
  2055  00F78C  6E05               	movwf	port1_send3byte@B^(0+1280),c
  2056  00F78E  ECD6  F073         	call	_port1_send3byte	;wreg free
  2057                           
  2058                           ;main.c: 340:         port1_send3byte(255,165,0);
  2059  00F792  0E00               	movlw	0
  2060  00F794  6E02               	movwf	(port1_send3byte@R+1)^(0+1280),c
  2061  00F796  6801               	setf	port1_send3byte@R^(0+1280),c
  2062  00F798  0E00               	movlw	0
  2063  00F79A  6E04               	movwf	(port1_send3byte@G+1)^(0+1280),c
  2064  00F79C  0EA5               	movlw	165
  2065  00F79E  6E03               	movwf	port1_send3byte@G^(0+1280),c
  2066  00F7A0  0E00               	movlw	0
  2067  00F7A2  6E06               	movwf	(port1_send3byte@B+1)^(0+1280),c
  2068  00F7A4  0E00               	movlw	0
  2069  00F7A6  6E05               	movwf	port1_send3byte@B^(0+1280),c
  2070  00F7A8  ECD6  F073         	call	_port1_send3byte	;wreg free
  2071  00F7AC                     
  2072                           ;main.c: 341:     }
  2073  00F7AC  4A12               	infsnz	Gaming@i_294^(0+1280),f,c
  2074  00F7AE  2A13               	incf	(Gaming@i_294+1)^(0+1280),f,c
  2075  00F7B0  BE13               	btfsc	(Gaming@i_294+1)^(0+1280),7,c
  2076  00F7B2  EFE4  F07B         	goto	u2651
  2077  00F7B6  5013               	movf	(Gaming@i_294+1)^(0+1280),w,c
  2078  00F7B8  E109               	bnz	u2650
  2079  00F7BA  0E0A               	movlw	10
  2080  00F7BC  5C12               	subwf	Gaming@i_294^(0+1280),w,c
  2081  00F7BE  A0D8               	btfss	status,0,c
  2082  00F7C0  EFE4  F07B         	goto	u2651
  2083  00F7C4  EFE6  F07B         	goto	u2650
  2084  00F7C8                     u2651:
  2085  00F7C8  EF7E  F07B         	goto	l1470
  2086  00F7CC                     u2650:
  2087  00F7CC                     
  2088                           ;main.c: 343:     for(int i = 0;i < 10;i++){
  2089  00F7CC  0E00               	movlw	0
  2090  00F7CE  6E15               	movwf	(Gaming@i_295+1)^(0+1280),c
  2091  00F7D0  0E00               	movlw	0
  2092  00F7D2  6E14               	movwf	Gaming@i_295^(0+1280),c
  2093  00F7D4                     l1482:
  2094                           
  2095                           ;main.c: 344:         port2_send3byte(255,255,0);
  2096  00F7D4  0E00               	movlw	0
  2097  00F7D6  6E02               	movwf	(port2_send3byte@R+1)^(0+1280),c
  2098  00F7D8  6801               	setf	port2_send3byte@R^(0+1280),c
  2099  00F7DA  0E00               	movlw	0
  2100  00F7DC  6E04               	movwf	(port2_send3byte@G+1)^(0+1280),c
  2101  00F7DE  6803               	setf	port2_send3byte@G^(0+1280),c
  2102  00F7E0  0E00               	movlw	0
  2103  00F7E2  6E06               	movwf	(port2_send3byte@B+1)^(0+1280),c
  2104  00F7E4  0E00               	movlw	0
  2105  00F7E6  6E05               	movwf	port2_send3byte@B^(0+1280),c
  2106  00F7E8  ECC5  F076         	call	_port2_send3byte	;wreg free
  2107                           
  2108                           ;main.c: 345:         port2_send3byte(0,255,0);
  2109  00F7EC  0E00               	movlw	0
  2110  00F7EE  6E02               	movwf	(port2_send3byte@R+1)^(0+1280),c
  2111  00F7F0  0E00               	movlw	0
  2112  00F7F2  6E01               	movwf	port2_send3byte@R^(0+1280),c
  2113  00F7F4  0E00               	movlw	0
  2114  00F7F6  6E04               	movwf	(port2_send3byte@G+1)^(0+1280),c
  2115  00F7F8  6803               	setf	port2_send3byte@G^(0+1280),c
  2116  00F7FA  0E00               	movlw	0
  2117  00F7FC  6E06               	movwf	(port2_send3byte@B+1)^(0+1280),c
  2118  00F7FE  0E00               	movlw	0
  2119  00F800  6E05               	movwf	port2_send3byte@B^(0+1280),c
  2120  00F802  ECC5  F076         	call	_port2_send3byte	;wreg free
  2121                           
  2122                           ;main.c: 346:         port2_send3byte(0,255,255);
  2123  00F806  0E00               	movlw	0
  2124  00F808  6E02               	movwf	(port2_send3byte@R+1)^(0+1280),c
  2125  00F80A  0E00               	movlw	0
  2126  00F80C  6E01               	movwf	port2_send3byte@R^(0+1280),c
  2127  00F80E  0E00               	movlw	0
  2128  00F810  6E04               	movwf	(port2_send3byte@G+1)^(0+1280),c
  2129  00F812  6803               	setf	port2_send3byte@G^(0+1280),c
  2130  00F814  0E00               	movlw	0
  2131  00F816  6E06               	movwf	(port2_send3byte@B+1)^(0+1280),c
  2132  00F818  6805               	setf	port2_send3byte@B^(0+1280),c
  2133  00F81A  ECC5  F076         	call	_port2_send3byte	;wreg free
  2134                           
  2135                           ;main.c: 347:         port2_send3byte(0,0,255);
  2136  00F81E  0E00               	movlw	0
  2137  00F820  6E02               	movwf	(port2_send3byte@R+1)^(0+1280),c
  2138  00F822  0E00               	movlw	0
  2139  00F824  6E01               	movwf	port2_send3byte@R^(0+1280),c
  2140  00F826  0E00               	movlw	0
  2141  00F828  6E04               	movwf	(port2_send3byte@G+1)^(0+1280),c
  2142  00F82A  0E00               	movlw	0
  2143  00F82C  6E03               	movwf	port2_send3byte@G^(0+1280),c
  2144  00F82E  0E00               	movlw	0
  2145  00F830  6E06               	movwf	(port2_send3byte@B+1)^(0+1280),c
  2146  00F832  6805               	setf	port2_send3byte@B^(0+1280),c
  2147  00F834  ECC5  F076         	call	_port2_send3byte	;wreg free
  2148                           
  2149                           ;main.c: 348:         port2_send3byte(255,0,255);
  2150  00F838  0E00               	movlw	0
  2151  00F83A  6E02               	movwf	(port2_send3byte@R+1)^(0+1280),c
  2152  00F83C  6801               	setf	port2_send3byte@R^(0+1280),c
  2153  00F83E  0E00               	movlw	0
  2154  00F840  6E04               	movwf	(port2_send3byte@G+1)^(0+1280),c
  2155  00F842  0E00               	movlw	0
  2156  00F844  6E03               	movwf	port2_send3byte@G^(0+1280),c
  2157  00F846  0E00               	movlw	0
  2158  00F848  6E06               	movwf	(port2_send3byte@B+1)^(0+1280),c
  2159  00F84A  6805               	setf	port2_send3byte@B^(0+1280),c
  2160  00F84C  ECC5  F076         	call	_port2_send3byte	;wreg free
  2161                           
  2162                           ;main.c: 349:         port2_send3byte(255,0,0);
  2163  00F850  0E00               	movlw	0
  2164  00F852  6E02               	movwf	(port2_send3byte@R+1)^(0+1280),c
  2165  00F854  6801               	setf	port2_send3byte@R^(0+1280),c
  2166  00F856  0E00               	movlw	0
  2167  00F858  6E04               	movwf	(port2_send3byte@G+1)^(0+1280),c
  2168  00F85A  0E00               	movlw	0
  2169  00F85C  6E03               	movwf	port2_send3byte@G^(0+1280),c
  2170  00F85E  0E00               	movlw	0
  2171  00F860  6E06               	movwf	(port2_send3byte@B+1)^(0+1280),c
  2172  00F862  0E00               	movlw	0
  2173  00F864  6E05               	movwf	port2_send3byte@B^(0+1280),c
  2174  00F866  ECC5  F076         	call	_port2_send3byte	;wreg free
  2175                           
  2176                           ;main.c: 350:         port2_send3byte(255,165,0);
  2177  00F86A  0E00               	movlw	0
  2178  00F86C  6E02               	movwf	(port2_send3byte@R+1)^(0+1280),c
  2179  00F86E  6801               	setf	port2_send3byte@R^(0+1280),c
  2180  00F870  0E00               	movlw	0
  2181  00F872  6E04               	movwf	(port2_send3byte@G+1)^(0+1280),c
  2182  00F874  0EA5               	movlw	165
  2183  00F876  6E03               	movwf	port2_send3byte@G^(0+1280),c
  2184  00F878  0E00               	movlw	0
  2185  00F87A  6E06               	movwf	(port2_send3byte@B+1)^(0+1280),c
  2186  00F87C  0E00               	movlw	0
  2187  00F87E  6E05               	movwf	port2_send3byte@B^(0+1280),c
  2188  00F880  ECC5  F076         	call	_port2_send3byte	;wreg free
  2189  00F884                     
  2190                           ;main.c: 351:     }
  2191  00F884  4A14               	infsnz	Gaming@i_295^(0+1280),f,c
  2192  00F886  2A15               	incf	(Gaming@i_295+1)^(0+1280),f,c
  2193  00F888  BE15               	btfsc	(Gaming@i_295+1)^(0+1280),7,c
  2194  00F88A  EF50  F07C         	goto	u2661
  2195  00F88E  5015               	movf	(Gaming@i_295+1)^(0+1280),w,c
  2196  00F890  E109               	bnz	u2660
  2197  00F892  0E0A               	movlw	10
  2198  00F894  5C14               	subwf	Gaming@i_295^(0+1280),w,c
  2199  00F896  A0D8               	btfss	status,0,c
  2200  00F898  EF50  F07C         	goto	u2661
  2201  00F89C  EF52  F07C         	goto	u2660
  2202  00F8A0                     u2661:
  2203  00F8A0  EFEA  F07B         	goto	l1482
  2204  00F8A4                     u2660:
  2205  00F8A4                     
  2206                           ;main.c: 353:     _delay((unsigned long)((50)*(40000000/4000.0)));
  2207  00F8A4  0E03               	movlw	3
  2208  00F8A6  6E09               	movwf	(??_Gaming+1)^(0+1280),c
  2209  00F8A8  0E8A               	movlw	138
  2210  00F8AA  6E08               	movwf	??_Gaming^(0+1280),c
  2211  00F8AC  0E56               	movlw	86
  2212  00F8AE                     u2927:
  2213  00F8AE  2EE8               	decfsz	wreg,f,c
  2214  00F8B0  D7FE               	bra	u2927
  2215  00F8B2  2E08               	decfsz	??_Gaming^(0+1280),f,c
  2216  00F8B4  D7FC               	bra	u2927
  2217  00F8B6  2E09               	decfsz	(??_Gaming+1)^(0+1280),f,c
  2218  00F8B8  D7FA               	bra	u2927
  2219  00F8BA                     
  2220                           ;main.c: 355:     for(int i = 0;i < 10;i++){
  2221  00F8BA  0E00               	movlw	0
  2222  00F8BC  6E17               	movwf	(Gaming@i_296+1)^(0+1280),c
  2223  00F8BE  0E00               	movlw	0
  2224  00F8C0  6E16               	movwf	Gaming@i_296^(0+1280),c
  2225  00F8C2                     l1496:
  2226                           
  2227                           ;main.c: 356:         port1_send3byte(0,255,0);
  2228  00F8C2  0E00               	movlw	0
  2229  00F8C4  6E02               	movwf	(port1_send3byte@R+1)^(0+1280),c
  2230  00F8C6  0E00               	movlw	0
  2231  00F8C8  6E01               	movwf	port1_send3byte@R^(0+1280),c
  2232  00F8CA  0E00               	movlw	0
  2233  00F8CC  6E04               	movwf	(port1_send3byte@G+1)^(0+1280),c
  2234  00F8CE  6803               	setf	port1_send3byte@G^(0+1280),c
  2235  00F8D0  0E00               	movlw	0
  2236  00F8D2  6E06               	movwf	(port1_send3byte@B+1)^(0+1280),c
  2237  00F8D4  0E00               	movlw	0
  2238  00F8D6  6E05               	movwf	port1_send3byte@B^(0+1280),c
  2239  00F8D8  ECD6  F073         	call	_port1_send3byte	;wreg free
  2240                           
  2241                           ;main.c: 357:         port1_send3byte(0,255,255);
  2242  00F8DC  0E00               	movlw	0
  2243  00F8DE  6E02               	movwf	(port1_send3byte@R+1)^(0+1280),c
  2244  00F8E0  0E00               	movlw	0
  2245  00F8E2  6E01               	movwf	port1_send3byte@R^(0+1280),c
  2246  00F8E4  0E00               	movlw	0
  2247  00F8E6  6E04               	movwf	(port1_send3byte@G+1)^(0+1280),c
  2248  00F8E8  6803               	setf	port1_send3byte@G^(0+1280),c
  2249  00F8EA  0E00               	movlw	0
  2250  00F8EC  6E06               	movwf	(port1_send3byte@B+1)^(0+1280),c
  2251  00F8EE  6805               	setf	port1_send3byte@B^(0+1280),c
  2252  00F8F0  ECD6  F073         	call	_port1_send3byte	;wreg free
  2253                           
  2254                           ;main.c: 358:         port1_send3byte(0,0,255);
  2255  00F8F4  0E00               	movlw	0
  2256  00F8F6  6E02               	movwf	(port1_send3byte@R+1)^(0+1280),c
  2257  00F8F8  0E00               	movlw	0
  2258  00F8FA  6E01               	movwf	port1_send3byte@R^(0+1280),c
  2259  00F8FC  0E00               	movlw	0
  2260  00F8FE  6E04               	movwf	(port1_send3byte@G+1)^(0+1280),c
  2261  00F900  0E00               	movlw	0
  2262  00F902  6E03               	movwf	port1_send3byte@G^(0+1280),c
  2263  00F904  0E00               	movlw	0
  2264  00F906  6E06               	movwf	(port1_send3byte@B+1)^(0+1280),c
  2265  00F908  6805               	setf	port1_send3byte@B^(0+1280),c
  2266  00F90A  ECD6  F073         	call	_port1_send3byte	;wreg free
  2267                           
  2268                           ;main.c: 359:         port1_send3byte(255,0,255);
  2269  00F90E  0E00               	movlw	0
  2270  00F910  6E02               	movwf	(port1_send3byte@R+1)^(0+1280),c
  2271  00F912  6801               	setf	port1_send3byte@R^(0+1280),c
  2272  00F914  0E00               	movlw	0
  2273  00F916  6E04               	movwf	(port1_send3byte@G+1)^(0+1280),c
  2274  00F918  0E00               	movlw	0
  2275  00F91A  6E03               	movwf	port1_send3byte@G^(0+1280),c
  2276  00F91C  0E00               	movlw	0
  2277  00F91E  6E06               	movwf	(port1_send3byte@B+1)^(0+1280),c
  2278  00F920  6805               	setf	port1_send3byte@B^(0+1280),c
  2279  00F922  ECD6  F073         	call	_port1_send3byte	;wreg free
  2280                           
  2281                           ;main.c: 360:         port1_send3byte(255,0,0);
  2282  00F926  0E00               	movlw	0
  2283  00F928  6E02               	movwf	(port1_send3byte@R+1)^(0+1280),c
  2284  00F92A  6801               	setf	port1_send3byte@R^(0+1280),c
  2285  00F92C  0E00               	movlw	0
  2286  00F92E  6E04               	movwf	(port1_send3byte@G+1)^(0+1280),c
  2287  00F930  0E00               	movlw	0
  2288  00F932  6E03               	movwf	port1_send3byte@G^(0+1280),c
  2289  00F934  0E00               	movlw	0
  2290  00F936  6E06               	movwf	(port1_send3byte@B+1)^(0+1280),c
  2291  00F938  0E00               	movlw	0
  2292  00F93A  6E05               	movwf	port1_send3byte@B^(0+1280),c
  2293  00F93C  ECD6  F073         	call	_port1_send3byte	;wreg free
  2294                           
  2295                           ;main.c: 361:         port1_send3byte(255,165,0);
  2296  00F940  0E00               	movlw	0
  2297  00F942  6E02               	movwf	(port1_send3byte@R+1)^(0+1280),c
  2298  00F944  6801               	setf	port1_send3byte@R^(0+1280),c
  2299  00F946  0E00               	movlw	0
  2300  00F948  6E04               	movwf	(port1_send3byte@G+1)^(0+1280),c
  2301  00F94A  0EA5               	movlw	165
  2302  00F94C  6E03               	movwf	port1_send3byte@G^(0+1280),c
  2303  00F94E  0E00               	movlw	0
  2304  00F950  6E06               	movwf	(port1_send3byte@B+1)^(0+1280),c
  2305  00F952  0E00               	movlw	0
  2306  00F954  6E05               	movwf	port1_send3byte@B^(0+1280),c
  2307  00F956  ECD6  F073         	call	_port1_send3byte	;wreg free
  2308                           
  2309                           ;main.c: 362:         port1_send3byte(255,255,0);
  2310  00F95A  0E00               	movlw	0
  2311  00F95C  6E02               	movwf	(port1_send3byte@R+1)^(0+1280),c
  2312  00F95E  6801               	setf	port1_send3byte@R^(0+1280),c
  2313  00F960  0E00               	movlw	0
  2314  00F962  6E04               	movwf	(port1_send3byte@G+1)^(0+1280),c
  2315  00F964  6803               	setf	port1_send3byte@G^(0+1280),c
  2316  00F966  0E00               	movlw	0
  2317  00F968  6E06               	movwf	(port1_send3byte@B+1)^(0+1280),c
  2318  00F96A  0E00               	movlw	0
  2319  00F96C  6E05               	movwf	port1_send3byte@B^(0+1280),c
  2320  00F96E  ECD6  F073         	call	_port1_send3byte	;wreg free
  2321  00F972                     
  2322                           ;main.c: 363:     }
  2323  00F972  4A16               	infsnz	Gaming@i_296^(0+1280),f,c
  2324  00F974  2A17               	incf	(Gaming@i_296+1)^(0+1280),f,c
  2325  00F976  BE17               	btfsc	(Gaming@i_296+1)^(0+1280),7,c
  2326  00F978  EFC7  F07C         	goto	u2671
  2327  00F97C  5017               	movf	(Gaming@i_296+1)^(0+1280),w,c
  2328  00F97E  E109               	bnz	u2670
  2329  00F980  0E0A               	movlw	10
  2330  00F982  5C16               	subwf	Gaming@i_296^(0+1280),w,c
  2331  00F984  A0D8               	btfss	status,0,c
  2332  00F986  EFC7  F07C         	goto	u2671
  2333  00F98A  EFC9  F07C         	goto	u2670
  2334  00F98E                     u2671:
  2335  00F98E  EF61  F07C         	goto	l1496
  2336  00F992                     u2670:
  2337  00F992                     
  2338                           ;main.c: 365:     for(int i = 0;i < 10;i++){
  2339  00F992  0E00               	movlw	0
  2340  00F994  6E19               	movwf	(Gaming@i_297+1)^(0+1280),c
  2341  00F996  0E00               	movlw	0
  2342  00F998  6E18               	movwf	Gaming@i_297^(0+1280),c
  2343  00F99A                     l1508:
  2344                           
  2345                           ;main.c: 366:         port2_send3byte(0,255,0);
  2346  00F99A  0E00               	movlw	0
  2347  00F99C  6E02               	movwf	(port2_send3byte@R+1)^(0+1280),c
  2348  00F99E  0E00               	movlw	0
  2349  00F9A0  6E01               	movwf	port2_send3byte@R^(0+1280),c
  2350  00F9A2  0E00               	movlw	0
  2351  00F9A4  6E04               	movwf	(port2_send3byte@G+1)^(0+1280),c
  2352  00F9A6  6803               	setf	port2_send3byte@G^(0+1280),c
  2353  00F9A8  0E00               	movlw	0
  2354  00F9AA  6E06               	movwf	(port2_send3byte@B+1)^(0+1280),c
  2355  00F9AC  0E00               	movlw	0
  2356  00F9AE  6E05               	movwf	port2_send3byte@B^(0+1280),c
  2357  00F9B0  ECC5  F076         	call	_port2_send3byte	;wreg free
  2358                           
  2359                           ;main.c: 367:         port2_send3byte(0,255,255);
  2360  00F9B4  0E00               	movlw	0
  2361  00F9B6  6E02               	movwf	(port2_send3byte@R+1)^(0+1280),c
  2362  00F9B8  0E00               	movlw	0
  2363  00F9BA  6E01               	movwf	port2_send3byte@R^(0+1280),c
  2364  00F9BC  0E00               	movlw	0
  2365  00F9BE  6E04               	movwf	(port2_send3byte@G+1)^(0+1280),c
  2366  00F9C0  6803               	setf	port2_send3byte@G^(0+1280),c
  2367  00F9C2  0E00               	movlw	0
  2368  00F9C4  6E06               	movwf	(port2_send3byte@B+1)^(0+1280),c
  2369  00F9C6  6805               	setf	port2_send3byte@B^(0+1280),c
  2370  00F9C8  ECC5  F076         	call	_port2_send3byte	;wreg free
  2371                           
  2372                           ;main.c: 368:         port2_send3byte(0,0,255);
  2373  00F9CC  0E00               	movlw	0
  2374  00F9CE  6E02               	movwf	(port2_send3byte@R+1)^(0+1280),c
  2375  00F9D0  0E00               	movlw	0
  2376  00F9D2  6E01               	movwf	port2_send3byte@R^(0+1280),c
  2377  00F9D4  0E00               	movlw	0
  2378  00F9D6  6E04               	movwf	(port2_send3byte@G+1)^(0+1280),c
  2379  00F9D8  0E00               	movlw	0
  2380  00F9DA  6E03               	movwf	port2_send3byte@G^(0+1280),c
  2381  00F9DC  0E00               	movlw	0
  2382  00F9DE  6E06               	movwf	(port2_send3byte@B+1)^(0+1280),c
  2383  00F9E0  6805               	setf	port2_send3byte@B^(0+1280),c
  2384  00F9E2  ECC5  F076         	call	_port2_send3byte	;wreg free
  2385                           
  2386                           ;main.c: 369:         port2_send3byte(255,0,255);
  2387  00F9E6  0E00               	movlw	0
  2388  00F9E8  6E02               	movwf	(port2_send3byte@R+1)^(0+1280),c
  2389  00F9EA  6801               	setf	port2_send3byte@R^(0+1280),c
  2390  00F9EC  0E00               	movlw	0
  2391  00F9EE  6E04               	movwf	(port2_send3byte@G+1)^(0+1280),c
  2392  00F9F0  0E00               	movlw	0
  2393  00F9F2  6E03               	movwf	port2_send3byte@G^(0+1280),c
  2394  00F9F4  0E00               	movlw	0
  2395  00F9F6  6E06               	movwf	(port2_send3byte@B+1)^(0+1280),c
  2396  00F9F8  6805               	setf	port2_send3byte@B^(0+1280),c
  2397  00F9FA  ECC5  F076         	call	_port2_send3byte	;wreg free
  2398                           
  2399                           ;main.c: 370:         port2_send3byte(255,0,0);
  2400  00F9FE  0E00               	movlw	0
  2401  00FA00  6E02               	movwf	(port2_send3byte@R+1)^(0+1280),c
  2402  00FA02  6801               	setf	port2_send3byte@R^(0+1280),c
  2403  00FA04  0E00               	movlw	0
  2404  00FA06  6E04               	movwf	(port2_send3byte@G+1)^(0+1280),c
  2405  00FA08  0E00               	movlw	0
  2406  00FA0A  6E03               	movwf	port2_send3byte@G^(0+1280),c
  2407  00FA0C  0E00               	movlw	0
  2408  00FA0E  6E06               	movwf	(port2_send3byte@B+1)^(0+1280),c
  2409  00FA10  0E00               	movlw	0
  2410  00FA12  6E05               	movwf	port2_send3byte@B^(0+1280),c
  2411  00FA14  ECC5  F076         	call	_port2_send3byte	;wreg free
  2412                           
  2413                           ;main.c: 371:         port2_send3byte(255,165,0);
  2414  00FA18  0E00               	movlw	0
  2415  00FA1A  6E02               	movwf	(port2_send3byte@R+1)^(0+1280),c
  2416  00FA1C  6801               	setf	port2_send3byte@R^(0+1280),c
  2417  00FA1E  0E00               	movlw	0
  2418  00FA20  6E04               	movwf	(port2_send3byte@G+1)^(0+1280),c
  2419  00FA22  0EA5               	movlw	165
  2420  00FA24  6E03               	movwf	port2_send3byte@G^(0+1280),c
  2421  00FA26  0E00               	movlw	0
  2422  00FA28  6E06               	movwf	(port2_send3byte@B+1)^(0+1280),c
  2423  00FA2A  0E00               	movlw	0
  2424  00FA2C  6E05               	movwf	port2_send3byte@B^(0+1280),c
  2425  00FA2E  ECC5  F076         	call	_port2_send3byte	;wreg free
  2426                           
  2427                           ;main.c: 372:         port2_send3byte(255,255,0);
  2428  00FA32  0E00               	movlw	0
  2429  00FA34  6E02               	movwf	(port2_send3byte@R+1)^(0+1280),c
  2430  00FA36  6801               	setf	port2_send3byte@R^(0+1280),c
  2431  00FA38  0E00               	movlw	0
  2432  00FA3A  6E04               	movwf	(port2_send3byte@G+1)^(0+1280),c
  2433  00FA3C  6803               	setf	port2_send3byte@G^(0+1280),c
  2434  00FA3E  0E00               	movlw	0
  2435  00FA40  6E06               	movwf	(port2_send3byte@B+1)^(0+1280),c
  2436  00FA42  0E00               	movlw	0
  2437  00FA44  6E05               	movwf	port2_send3byte@B^(0+1280),c
  2438  00FA46  ECC5  F076         	call	_port2_send3byte	;wreg free
  2439  00FA4A                     
  2440                           ;main.c: 373:     }
  2441  00FA4A  4A18               	infsnz	Gaming@i_297^(0+1280),f,c
  2442  00FA4C  2A19               	incf	(Gaming@i_297+1)^(0+1280),f,c
  2443  00FA4E  BE19               	btfsc	(Gaming@i_297+1)^(0+1280),7,c
  2444  00FA50  EF33  F07D         	goto	u2681
  2445  00FA54  5019               	movf	(Gaming@i_297+1)^(0+1280),w,c
  2446  00FA56  E109               	bnz	u2680
  2447  00FA58  0E0A               	movlw	10
  2448  00FA5A  5C18               	subwf	Gaming@i_297^(0+1280),w,c
  2449  00FA5C  A0D8               	btfss	status,0,c
  2450  00FA5E  EF33  F07D         	goto	u2681
  2451  00FA62  EF35  F07D         	goto	u2680
  2452  00FA66                     u2681:
  2453  00FA66  EFCD  F07C         	goto	l1508
  2454  00FA6A                     u2680:
  2455  00FA6A                     
  2456                           ;main.c: 375:     _delay((unsigned long)((50)*(40000000/4000.0)));
  2457  00FA6A  0E03               	movlw	3
  2458  00FA6C  6E09               	movwf	(??_Gaming+1)^(0+1280),c
  2459  00FA6E  0E8A               	movlw	138
  2460  00FA70  6E08               	movwf	??_Gaming^(0+1280),c
  2461  00FA72  0E56               	movlw	86
  2462  00FA74                     u2937:
  2463  00FA74  2EE8               	decfsz	wreg,f,c
  2464  00FA76  D7FE               	bra	u2937
  2465  00FA78  2E08               	decfsz	??_Gaming^(0+1280),f,c
  2466  00FA7A  D7FC               	bra	u2937
  2467  00FA7C  2E09               	decfsz	(??_Gaming+1)^(0+1280),f,c
  2468  00FA7E  D7FA               	bra	u2937
  2469  00FA80                     
  2470                           ;main.c: 377:     for(int i = 0;i < 10;i++){
  2471  00FA80  0E00               	movlw	0
  2472  00FA82  6E1B               	movwf	(Gaming@i_298+1)^(0+1280),c
  2473  00FA84  0E00               	movlw	0
  2474  00FA86  6E1A               	movwf	Gaming@i_298^(0+1280),c
  2475  00FA88                     l1522:
  2476                           
  2477                           ;main.c: 378:         port1_send3byte(0,255,255);
  2478  00FA88  0E00               	movlw	0
  2479  00FA8A  6E02               	movwf	(port1_send3byte@R+1)^(0+1280),c
  2480  00FA8C  0E00               	movlw	0
  2481  00FA8E  6E01               	movwf	port1_send3byte@R^(0+1280),c
  2482  00FA90  0E00               	movlw	0
  2483  00FA92  6E04               	movwf	(port1_send3byte@G+1)^(0+1280),c
  2484  00FA94  6803               	setf	port1_send3byte@G^(0+1280),c
  2485  00FA96  0E00               	movlw	0
  2486  00FA98  6E06               	movwf	(port1_send3byte@B+1)^(0+1280),c
  2487  00FA9A  6805               	setf	port1_send3byte@B^(0+1280),c
  2488  00FA9C  ECD6  F073         	call	_port1_send3byte	;wreg free
  2489                           
  2490                           ;main.c: 379:         port1_send3byte(0,0,255);
  2491  00FAA0  0E00               	movlw	0
  2492  00FAA2  6E02               	movwf	(port1_send3byte@R+1)^(0+1280),c
  2493  00FAA4  0E00               	movlw	0
  2494  00FAA6  6E01               	movwf	port1_send3byte@R^(0+1280),c
  2495  00FAA8  0E00               	movlw	0
  2496  00FAAA  6E04               	movwf	(port1_send3byte@G+1)^(0+1280),c
  2497  00FAAC  0E00               	movlw	0
  2498  00FAAE  6E03               	movwf	port1_send3byte@G^(0+1280),c
  2499  00FAB0  0E00               	movlw	0
  2500  00FAB2  6E06               	movwf	(port1_send3byte@B+1)^(0+1280),c
  2501  00FAB4  6805               	setf	port1_send3byte@B^(0+1280),c
  2502  00FAB6  ECD6  F073         	call	_port1_send3byte	;wreg free
  2503                           
  2504                           ;main.c: 380:         port1_send3byte(255,0,255);
  2505  00FABA  0E00               	movlw	0
  2506  00FABC  6E02               	movwf	(port1_send3byte@R+1)^(0+1280),c
  2507  00FABE  6801               	setf	port1_send3byte@R^(0+1280),c
  2508  00FAC0  0E00               	movlw	0
  2509  00FAC2  6E04               	movwf	(port1_send3byte@G+1)^(0+1280),c
  2510  00FAC4  0E00               	movlw	0
  2511  00FAC6  6E03               	movwf	port1_send3byte@G^(0+1280),c
  2512  00FAC8  0E00               	movlw	0
  2513  00FACA  6E06               	movwf	(port1_send3byte@B+1)^(0+1280),c
  2514  00FACC  6805               	setf	port1_send3byte@B^(0+1280),c
  2515  00FACE  ECD6  F073         	call	_port1_send3byte	;wreg free
  2516                           
  2517                           ;main.c: 381:         port1_send3byte(255,0,0);
  2518  00FAD2  0E00               	movlw	0
  2519  00FAD4  6E02               	movwf	(port1_send3byte@R+1)^(0+1280),c
  2520  00FAD6  6801               	setf	port1_send3byte@R^(0+1280),c
  2521  00FAD8  0E00               	movlw	0
  2522  00FADA  6E04               	movwf	(port1_send3byte@G+1)^(0+1280),c
  2523  00FADC  0E00               	movlw	0
  2524  00FADE  6E03               	movwf	port1_send3byte@G^(0+1280),c
  2525  00FAE0  0E00               	movlw	0
  2526  00FAE2  6E06               	movwf	(port1_send3byte@B+1)^(0+1280),c
  2527  00FAE4  0E00               	movlw	0
  2528  00FAE6  6E05               	movwf	port1_send3byte@B^(0+1280),c
  2529  00FAE8  ECD6  F073         	call	_port1_send3byte	;wreg free
  2530                           
  2531                           ;main.c: 382:         port1_send3byte(255,165,0);
  2532  00FAEC  0E00               	movlw	0
  2533  00FAEE  6E02               	movwf	(port1_send3byte@R+1)^(0+1280),c
  2534  00FAF0  6801               	setf	port1_send3byte@R^(0+1280),c
  2535  00FAF2  0E00               	movlw	0
  2536  00FAF4  6E04               	movwf	(port1_send3byte@G+1)^(0+1280),c
  2537  00FAF6  0EA5               	movlw	165
  2538  00FAF8  6E03               	movwf	port1_send3byte@G^(0+1280),c
  2539  00FAFA  0E00               	movlw	0
  2540  00FAFC  6E06               	movwf	(port1_send3byte@B+1)^(0+1280),c
  2541  00FAFE  0E00               	movlw	0
  2542  00FB00  6E05               	movwf	port1_send3byte@B^(0+1280),c
  2543  00FB02  ECD6  F073         	call	_port1_send3byte	;wreg free
  2544                           
  2545                           ;main.c: 383:         port1_send3byte(255,255,0);
  2546  00FB06  0E00               	movlw	0
  2547  00FB08  6E02               	movwf	(port1_send3byte@R+1)^(0+1280),c
  2548  00FB0A  6801               	setf	port1_send3byte@R^(0+1280),c
  2549  00FB0C  0E00               	movlw	0
  2550  00FB0E  6E04               	movwf	(port1_send3byte@G+1)^(0+1280),c
  2551  00FB10  6803               	setf	port1_send3byte@G^(0+1280),c
  2552  00FB12  0E00               	movlw	0
  2553  00FB14  6E06               	movwf	(port1_send3byte@B+1)^(0+1280),c
  2554  00FB16  0E00               	movlw	0
  2555  00FB18  6E05               	movwf	port1_send3byte@B^(0+1280),c
  2556  00FB1A  ECD6  F073         	call	_port1_send3byte	;wreg free
  2557                           
  2558                           ;main.c: 384:         port1_send3byte(0,255,0);
  2559  00FB1E  0E00               	movlw	0
  2560  00FB20  6E02               	movwf	(port1_send3byte@R+1)^(0+1280),c
  2561  00FB22  0E00               	movlw	0
  2562  00FB24  6E01               	movwf	port1_send3byte@R^(0+1280),c
  2563  00FB26  0E00               	movlw	0
  2564  00FB28  6E04               	movwf	(port1_send3byte@G+1)^(0+1280),c
  2565  00FB2A  6803               	setf	port1_send3byte@G^(0+1280),c
  2566  00FB2C  0E00               	movlw	0
  2567  00FB2E  6E06               	movwf	(port1_send3byte@B+1)^(0+1280),c
  2568  00FB30  0E00               	movlw	0
  2569  00FB32  6E05               	movwf	port1_send3byte@B^(0+1280),c
  2570  00FB34  ECD6  F073         	call	_port1_send3byte	;wreg free
  2571  00FB38                     
  2572                           ;main.c: 385:     }
  2573  00FB38  4A1A               	infsnz	Gaming@i_298^(0+1280),f,c
  2574  00FB3A  2A1B               	incf	(Gaming@i_298+1)^(0+1280),f,c
  2575  00FB3C  BE1B               	btfsc	(Gaming@i_298+1)^(0+1280),7,c
  2576  00FB3E  EFAA  F07D         	goto	u2691
  2577  00FB42  501B               	movf	(Gaming@i_298+1)^(0+1280),w,c
  2578  00FB44  E109               	bnz	u2690
  2579  00FB46  0E0A               	movlw	10
  2580  00FB48  5C1A               	subwf	Gaming@i_298^(0+1280),w,c
  2581  00FB4A  A0D8               	btfss	status,0,c
  2582  00FB4C  EFAA  F07D         	goto	u2691
  2583  00FB50  EFAC  F07D         	goto	u2690
  2584  00FB54                     u2691:
  2585  00FB54  EF44  F07D         	goto	l1522
  2586  00FB58                     u2690:
  2587  00FB58                     
  2588                           ;main.c: 387:     for(int i = 0;i < 10;i++){
  2589  00FB58  0E00               	movlw	0
  2590  00FB5A  6E1D               	movwf	(Gaming@i_299+1)^(0+1280),c
  2591  00FB5C  0E00               	movlw	0
  2592  00FB5E  6E1C               	movwf	Gaming@i_299^(0+1280),c
  2593  00FB60                     l1530:
  2594  00FB60  BE1D               	btfsc	(Gaming@i_299+1)^(0+1280),7,c
  2595  00FB62  EFBC  F07D         	goto	u2701
  2596  00FB66  501D               	movf	(Gaming@i_299+1)^(0+1280),w,c
  2597  00FB68  E109               	bnz	u2700
  2598  00FB6A  0E0A               	movlw	10
  2599  00FB6C  5C1C               	subwf	Gaming@i_299^(0+1280),w,c
  2600  00FB6E  A0D8               	btfss	status,0,c
  2601  00FB70  EFBC  F07D         	goto	u2701
  2602  00FB74  EFBE  F07D         	goto	u2700
  2603  00FB78                     u2701:
  2604  00FB78  EFC0  F07D         	goto	l1534
  2605  00FB7C                     u2700:
  2606  00FB7C  EF1C  F07E         	goto	l1540
  2607  00FB80                     l1534:
  2608                           
  2609                           ;main.c: 388:         port2_send3byte(0,255,255);
  2610  00FB80  0E00               	movlw	0
  2611  00FB82  6E02               	movwf	(port2_send3byte@R+1)^(0+1280),c
  2612  00FB84  0E00               	movlw	0
  2613  00FB86  6E01               	movwf	port2_send3byte@R^(0+1280),c
  2614  00FB88  0E00               	movlw	0
  2615  00FB8A  6E04               	movwf	(port2_send3byte@G+1)^(0+1280),c
  2616  00FB8C  6803               	setf	port2_send3byte@G^(0+1280),c
  2617  00FB8E  0E00               	movlw	0
  2618  00FB90  6E06               	movwf	(port2_send3byte@B+1)^(0+1280),c
  2619  00FB92  6805               	setf	port2_send3byte@B^(0+1280),c
  2620  00FB94  ECC5  F076         	call	_port2_send3byte	;wreg free
  2621                           
  2622                           ;main.c: 389:         port2_send3byte(0,0,255);
  2623  00FB98  0E00               	movlw	0
  2624  00FB9A  6E02               	movwf	(port2_send3byte@R+1)^(0+1280),c
  2625  00FB9C  0E00               	movlw	0
  2626  00FB9E  6E01               	movwf	port2_send3byte@R^(0+1280),c
  2627  00FBA0  0E00               	movlw	0
  2628  00FBA2  6E04               	movwf	(port2_send3byte@G+1)^(0+1280),c
  2629  00FBA4  0E00               	movlw	0
  2630  00FBA6  6E03               	movwf	port2_send3byte@G^(0+1280),c
  2631  00FBA8  0E00               	movlw	0
  2632  00FBAA  6E06               	movwf	(port2_send3byte@B+1)^(0+1280),c
  2633  00FBAC  6805               	setf	port2_send3byte@B^(0+1280),c
  2634  00FBAE  ECC5  F076         	call	_port2_send3byte	;wreg free
  2635                           
  2636                           ;main.c: 390:         port2_send3byte(255,0,255);
  2637  00FBB2  0E00               	movlw	0
  2638  00FBB4  6E02               	movwf	(port2_send3byte@R+1)^(0+1280),c
  2639  00FBB6  6801               	setf	port2_send3byte@R^(0+1280),c
  2640  00FBB8  0E00               	movlw	0
  2641  00FBBA  6E04               	movwf	(port2_send3byte@G+1)^(0+1280),c
  2642  00FBBC  0E00               	movlw	0
  2643  00FBBE  6E03               	movwf	port2_send3byte@G^(0+1280),c
  2644  00FBC0  0E00               	movlw	0
  2645  00FBC2  6E06               	movwf	(port2_send3byte@B+1)^(0+1280),c
  2646  00FBC4  6805               	setf	port2_send3byte@B^(0+1280),c
  2647  00FBC6  ECC5  F076         	call	_port2_send3byte	;wreg free
  2648                           
  2649                           ;main.c: 391:         port2_send3byte(255,0,0);
  2650  00FBCA  0E00               	movlw	0
  2651  00FBCC  6E02               	movwf	(port2_send3byte@R+1)^(0+1280),c
  2652  00FBCE  6801               	setf	port2_send3byte@R^(0+1280),c
  2653  00FBD0  0E00               	movlw	0
  2654  00FBD2  6E04               	movwf	(port2_send3byte@G+1)^(0+1280),c
  2655  00FBD4  0E00               	movlw	0
  2656  00FBD6  6E03               	movwf	port2_send3byte@G^(0+1280),c
  2657  00FBD8  0E00               	movlw	0
  2658  00FBDA  6E06               	movwf	(port2_send3byte@B+1)^(0+1280),c
  2659  00FBDC  0E00               	movlw	0
  2660  00FBDE  6E05               	movwf	port2_send3byte@B^(0+1280),c
  2661  00FBE0  ECC5  F076         	call	_port2_send3byte	;wreg free
  2662                           
  2663                           ;main.c: 392:         port2_send3byte(255,165,0);
  2664  00FBE4  0E00               	movlw	0
  2665  00FBE6  6E02               	movwf	(port2_send3byte@R+1)^(0+1280),c
  2666  00FBE8  6801               	setf	port2_send3byte@R^(0+1280),c
  2667  00FBEA  0E00               	movlw	0
  2668  00FBEC  6E04               	movwf	(port2_send3byte@G+1)^(0+1280),c
  2669  00FBEE  0EA5               	movlw	165
  2670  00FBF0  6E03               	movwf	port2_send3byte@G^(0+1280),c
  2671  00FBF2  0E00               	movlw	0
  2672  00FBF4  6E06               	movwf	(port2_send3byte@B+1)^(0+1280),c
  2673  00FBF6  0E00               	movlw	0
  2674  00FBF8  6E05               	movwf	port2_send3byte@B^(0+1280),c
  2675  00FBFA  ECC5  F076         	call	_port2_send3byte	;wreg free
  2676                           
  2677                           ;main.c: 393:         port2_send3byte(255,255,0);
  2678  00FBFE  0E00               	movlw	0
  2679  00FC00  6E02               	movwf	(port2_send3byte@R+1)^(0+1280),c
  2680  00FC02  6801               	setf	port2_send3byte@R^(0+1280),c
  2681  00FC04  0E00               	movlw	0
  2682  00FC06  6E04               	movwf	(port2_send3byte@G+1)^(0+1280),c
  2683  00FC08  6803               	setf	port2_send3byte@G^(0+1280),c
  2684  00FC0A  0E00               	movlw	0
  2685  00FC0C  6E06               	movwf	(port2_send3byte@B+1)^(0+1280),c
  2686  00FC0E  0E00               	movlw	0
  2687  00FC10  6E05               	movwf	port2_send3byte@B^(0+1280),c
  2688  00FC12  ECC5  F076         	call	_port2_send3byte	;wreg free
  2689                           
  2690                           ;main.c: 394:         port2_send3byte(0,255,0);
  2691  00FC16  0E00               	movlw	0
  2692  00FC18  6E02               	movwf	(port2_send3byte@R+1)^(0+1280),c
  2693  00FC1A  0E00               	movlw	0
  2694  00FC1C  6E01               	movwf	port2_send3byte@R^(0+1280),c
  2695  00FC1E  0E00               	movlw	0
  2696  00FC20  6E04               	movwf	(port2_send3byte@G+1)^(0+1280),c
  2697  00FC22  6803               	setf	port2_send3byte@G^(0+1280),c
  2698  00FC24  0E00               	movlw	0
  2699  00FC26  6E06               	movwf	(port2_send3byte@B+1)^(0+1280),c
  2700  00FC28  0E00               	movlw	0
  2701  00FC2A  6E05               	movwf	port2_send3byte@B^(0+1280),c
  2702  00FC2C  ECC5  F076         	call	_port2_send3byte	;wreg free
  2703  00FC30                     
  2704                           ;main.c: 395:     }
  2705  00FC30  4A1C               	infsnz	Gaming@i_299^(0+1280),f,c
  2706  00FC32  2A1D               	incf	(Gaming@i_299+1)^(0+1280),f,c
  2707  00FC34  EFB0  F07D         	goto	l1530
  2708  00FC38                     l1540:
  2709                           
  2710                           ;main.c: 397:     _delay((unsigned long)((50)*(40000000/4000.0)));
  2711  00FC38  0E03               	movlw	3
  2712  00FC3A  6E09               	movwf	(??_Gaming+1)^(0+1280),c
  2713  00FC3C  0E8A               	movlw	138
  2714  00FC3E  6E08               	movwf	??_Gaming^(0+1280),c
  2715  00FC40  0E56               	movlw	86
  2716  00FC42                     u2947:
  2717  00FC42  2EE8               	decfsz	wreg,f,c
  2718  00FC44  D7FE               	bra	u2947
  2719  00FC46  2E08               	decfsz	??_Gaming^(0+1280),f,c
  2720  00FC48  D7FC               	bra	u2947
  2721  00FC4A  2E09               	decfsz	(??_Gaming+1)^(0+1280),f,c
  2722  00FC4C  D7FA               	bra	u2947
  2723  00FC4E                     
  2724                           ;main.c: 399:     for(int i = 0;i < 10;i++){
  2725  00FC4E  0E00               	movlw	0
  2726  00FC50  6E1F               	movwf	(Gaming@i_300+1)^(0+1280),c
  2727  00FC52  0E00               	movlw	0
  2728  00FC54  6E1E               	movwf	Gaming@i_300^(0+1280),c
  2729  00FC56                     l1544:
  2730  00FC56  BE1F               	btfsc	(Gaming@i_300+1)^(0+1280),7,c
  2731  00FC58  EF37  F07E         	goto	u2711
  2732  00FC5C  501F               	movf	(Gaming@i_300+1)^(0+1280),w,c
  2733  00FC5E  E109               	bnz	u2710
  2734  00FC60  0E0A               	movlw	10
  2735  00FC62  5C1E               	subwf	Gaming@i_300^(0+1280),w,c
  2736  00FC64  A0D8               	btfss	status,0,c
  2737  00FC66  EF37  F07E         	goto	u2711
  2738  00FC6A  EF39  F07E         	goto	u2710
  2739  00FC6E                     u2711:
  2740  00FC6E  EF3B  F07E         	goto	l1548
  2741  00FC72                     u2710:
  2742  00FC72  EF97  F07E         	goto	l1554
  2743  00FC76                     l1548:
  2744                           
  2745                           ;main.c: 400:         port1_send3byte(0,0,255);
  2746  00FC76  0E00               	movlw	0
  2747  00FC78  6E02               	movwf	(port1_send3byte@R+1)^(0+1280),c
  2748  00FC7A  0E00               	movlw	0
  2749  00FC7C  6E01               	movwf	port1_send3byte@R^(0+1280),c
  2750  00FC7E  0E00               	movlw	0
  2751  00FC80  6E04               	movwf	(port1_send3byte@G+1)^(0+1280),c
  2752  00FC82  0E00               	movlw	0
  2753  00FC84  6E03               	movwf	port1_send3byte@G^(0+1280),c
  2754  00FC86  0E00               	movlw	0
  2755  00FC88  6E06               	movwf	(port1_send3byte@B+1)^(0+1280),c
  2756  00FC8A  6805               	setf	port1_send3byte@B^(0+1280),c
  2757  00FC8C  ECD6  F073         	call	_port1_send3byte	;wreg free
  2758                           
  2759                           ;main.c: 401:         port1_send3byte(255,0,255);
  2760  00FC90  0E00               	movlw	0
  2761  00FC92  6E02               	movwf	(port1_send3byte@R+1)^(0+1280),c
  2762  00FC94  6801               	setf	port1_send3byte@R^(0+1280),c
  2763  00FC96  0E00               	movlw	0
  2764  00FC98  6E04               	movwf	(port1_send3byte@G+1)^(0+1280),c
  2765  00FC9A  0E00               	movlw	0
  2766  00FC9C  6E03               	movwf	port1_send3byte@G^(0+1280),c
  2767  00FC9E  0E00               	movlw	0
  2768  00FCA0  6E06               	movwf	(port1_send3byte@B+1)^(0+1280),c
  2769  00FCA2  6805               	setf	port1_send3byte@B^(0+1280),c
  2770  00FCA4  ECD6  F073         	call	_port1_send3byte	;wreg free
  2771                           
  2772                           ;main.c: 402:         port1_send3byte(255,0,0);
  2773  00FCA8  0E00               	movlw	0
  2774  00FCAA  6E02               	movwf	(port1_send3byte@R+1)^(0+1280),c
  2775  00FCAC  6801               	setf	port1_send3byte@R^(0+1280),c
  2776  00FCAE  0E00               	movlw	0
  2777  00FCB0  6E04               	movwf	(port1_send3byte@G+1)^(0+1280),c
  2778  00FCB2  0E00               	movlw	0
  2779  00FCB4  6E03               	movwf	port1_send3byte@G^(0+1280),c
  2780  00FCB6  0E00               	movlw	0
  2781  00FCB8  6E06               	movwf	(port1_send3byte@B+1)^(0+1280),c
  2782  00FCBA  0E00               	movlw	0
  2783  00FCBC  6E05               	movwf	port1_send3byte@B^(0+1280),c
  2784  00FCBE  ECD6  F073         	call	_port1_send3byte	;wreg free
  2785                           
  2786                           ;main.c: 403:         port1_send3byte(255,165,0);
  2787  00FCC2  0E00               	movlw	0
  2788  00FCC4  6E02               	movwf	(port1_send3byte@R+1)^(0+1280),c
  2789  00FCC6  6801               	setf	port1_send3byte@R^(0+1280),c
  2790  00FCC8  0E00               	movlw	0
  2791  00FCCA  6E04               	movwf	(port1_send3byte@G+1)^(0+1280),c
  2792  00FCCC  0EA5               	movlw	165
  2793  00FCCE  6E03               	movwf	port1_send3byte@G^(0+1280),c
  2794  00FCD0  0E00               	movlw	0
  2795  00FCD2  6E06               	movwf	(port1_send3byte@B+1)^(0+1280),c
  2796  00FCD4  0E00               	movlw	0
  2797  00FCD6  6E05               	movwf	port1_send3byte@B^(0+1280),c
  2798  00FCD8  ECD6  F073         	call	_port1_send3byte	;wreg free
  2799                           
  2800                           ;main.c: 404:         port1_send3byte(255,255,0);
  2801  00FCDC  0E00               	movlw	0
  2802  00FCDE  6E02               	movwf	(port1_send3byte@R+1)^(0+1280),c
  2803  00FCE0  6801               	setf	port1_send3byte@R^(0+1280),c
  2804  00FCE2  0E00               	movlw	0
  2805  00FCE4  6E04               	movwf	(port1_send3byte@G+1)^(0+1280),c
  2806  00FCE6  6803               	setf	port1_send3byte@G^(0+1280),c
  2807  00FCE8  0E00               	movlw	0
  2808  00FCEA  6E06               	movwf	(port1_send3byte@B+1)^(0+1280),c
  2809  00FCEC  0E00               	movlw	0
  2810  00FCEE  6E05               	movwf	port1_send3byte@B^(0+1280),c
  2811  00FCF0  ECD6  F073         	call	_port1_send3byte	;wreg free
  2812                           
  2813                           ;main.c: 405:         port1_send3byte(0,255,0);
  2814  00FCF4  0E00               	movlw	0
  2815  00FCF6  6E02               	movwf	(port1_send3byte@R+1)^(0+1280),c
  2816  00FCF8  0E00               	movlw	0
  2817  00FCFA  6E01               	movwf	port1_send3byte@R^(0+1280),c
  2818  00FCFC  0E00               	movlw	0
  2819  00FCFE  6E04               	movwf	(port1_send3byte@G+1)^(0+1280),c
  2820  00FD00  6803               	setf	port1_send3byte@G^(0+1280),c
  2821  00FD02  0E00               	movlw	0
  2822  00FD04  6E06               	movwf	(port1_send3byte@B+1)^(0+1280),c
  2823  00FD06  0E00               	movlw	0
  2824  00FD08  6E05               	movwf	port1_send3byte@B^(0+1280),c
  2825  00FD0A  ECD6  F073         	call	_port1_send3byte	;wreg free
  2826                           
  2827                           ;main.c: 406:         port1_send3byte(0,255,255);
  2828  00FD0E  0E00               	movlw	0
  2829  00FD10  6E02               	movwf	(port1_send3byte@R+1)^(0+1280),c
  2830  00FD12  0E00               	movlw	0
  2831  00FD14  6E01               	movwf	port1_send3byte@R^(0+1280),c
  2832  00FD16  0E00               	movlw	0
  2833  00FD18  6E04               	movwf	(port1_send3byte@G+1)^(0+1280),c
  2834  00FD1A  6803               	setf	port1_send3byte@G^(0+1280),c
  2835  00FD1C  0E00               	movlw	0
  2836  00FD1E  6E06               	movwf	(port1_send3byte@B+1)^(0+1280),c
  2837  00FD20  6805               	setf	port1_send3byte@B^(0+1280),c
  2838  00FD22  ECD6  F073         	call	_port1_send3byte	;wreg free
  2839  00FD26                     
  2840                           ;main.c: 407:     }
  2841  00FD26  4A1E               	infsnz	Gaming@i_300^(0+1280),f,c
  2842  00FD28  2A1F               	incf	(Gaming@i_300+1)^(0+1280),f,c
  2843  00FD2A  EF2B  F07E         	goto	l1544
  2844  00FD2E                     l1554:
  2845                           
  2846                           ;main.c: 409:     for(int i = 0;i < 10;i++){
  2847  00FD2E  0E00               	movlw	0
  2848  00FD30  6E21               	movwf	(Gaming@i_301+1)^(0+1280),c
  2849  00FD32  0E00               	movlw	0
  2850  00FD34  6E20               	movwf	Gaming@i_301^(0+1280),c
  2851  00FD36                     l1556:
  2852  00FD36  BE21               	btfsc	(Gaming@i_301+1)^(0+1280),7,c
  2853  00FD38  EFA7  F07E         	goto	u2721
  2854  00FD3C  5021               	movf	(Gaming@i_301+1)^(0+1280),w,c
  2855  00FD3E  E109               	bnz	u2720
  2856  00FD40  0E0A               	movlw	10
  2857  00FD42  5C20               	subwf	Gaming@i_301^(0+1280),w,c
  2858  00FD44  A0D8               	btfss	status,0,c
  2859  00FD46  EFA7  F07E         	goto	u2721
  2860  00FD4A  EFA9  F07E         	goto	u2720
  2861  00FD4E                     u2721:
  2862  00FD4E  EFAB  F07E         	goto	l1560
  2863  00FD52                     u2720:
  2864  00FD52  EF07  F07F         	goto	l1566
  2865  00FD56                     l1560:
  2866                           
  2867                           ;main.c: 410:         port2_send3byte(0,0,255);
  2868  00FD56  0E00               	movlw	0
  2869  00FD58  6E02               	movwf	(port2_send3byte@R+1)^(0+1280),c
  2870  00FD5A  0E00               	movlw	0
  2871  00FD5C  6E01               	movwf	port2_send3byte@R^(0+1280),c
  2872  00FD5E  0E00               	movlw	0
  2873  00FD60  6E04               	movwf	(port2_send3byte@G+1)^(0+1280),c
  2874  00FD62  0E00               	movlw	0
  2875  00FD64  6E03               	movwf	port2_send3byte@G^(0+1280),c
  2876  00FD66  0E00               	movlw	0
  2877  00FD68  6E06               	movwf	(port2_send3byte@B+1)^(0+1280),c
  2878  00FD6A  6805               	setf	port2_send3byte@B^(0+1280),c
  2879  00FD6C  ECC5  F076         	call	_port2_send3byte	;wreg free
  2880                           
  2881                           ;main.c: 411:         port2_send3byte(255,0,255);
  2882  00FD70  0E00               	movlw	0
  2883  00FD72  6E02               	movwf	(port2_send3byte@R+1)^(0+1280),c
  2884  00FD74  6801               	setf	port2_send3byte@R^(0+1280),c
  2885  00FD76  0E00               	movlw	0
  2886  00FD78  6E04               	movwf	(port2_send3byte@G+1)^(0+1280),c
  2887  00FD7A  0E00               	movlw	0
  2888  00FD7C  6E03               	movwf	port2_send3byte@G^(0+1280),c
  2889  00FD7E  0E00               	movlw	0
  2890  00FD80  6E06               	movwf	(port2_send3byte@B+1)^(0+1280),c
  2891  00FD82  6805               	setf	port2_send3byte@B^(0+1280),c
  2892  00FD84  ECC5  F076         	call	_port2_send3byte	;wreg free
  2893                           
  2894                           ;main.c: 412:         port2_send3byte(255,0,0);
  2895  00FD88  0E00               	movlw	0
  2896  00FD8A  6E02               	movwf	(port2_send3byte@R+1)^(0+1280),c
  2897  00FD8C  6801               	setf	port2_send3byte@R^(0+1280),c
  2898  00FD8E  0E00               	movlw	0
  2899  00FD90  6E04               	movwf	(port2_send3byte@G+1)^(0+1280),c
  2900  00FD92  0E00               	movlw	0
  2901  00FD94  6E03               	movwf	port2_send3byte@G^(0+1280),c
  2902  00FD96  0E00               	movlw	0
  2903  00FD98  6E06               	movwf	(port2_send3byte@B+1)^(0+1280),c
  2904  00FD9A  0E00               	movlw	0
  2905  00FD9C  6E05               	movwf	port2_send3byte@B^(0+1280),c
  2906  00FD9E  ECC5  F076         	call	_port2_send3byte	;wreg free
  2907                           
  2908                           ;main.c: 413:         port2_send3byte(255,165,0);
  2909  00FDA2  0E00               	movlw	0
  2910  00FDA4  6E02               	movwf	(port2_send3byte@R+1)^(0+1280),c
  2911  00FDA6  6801               	setf	port2_send3byte@R^(0+1280),c
  2912  00FDA8  0E00               	movlw	0
  2913  00FDAA  6E04               	movwf	(port2_send3byte@G+1)^(0+1280),c
  2914  00FDAC  0EA5               	movlw	165
  2915  00FDAE  6E03               	movwf	port2_send3byte@G^(0+1280),c
  2916  00FDB0  0E00               	movlw	0
  2917  00FDB2  6E06               	movwf	(port2_send3byte@B+1)^(0+1280),c
  2918  00FDB4  0E00               	movlw	0
  2919  00FDB6  6E05               	movwf	port2_send3byte@B^(0+1280),c
  2920  00FDB8  ECC5  F076         	call	_port2_send3byte	;wreg free
  2921                           
  2922                           ;main.c: 414:         port2_send3byte(255,255,0);
  2923  00FDBC  0E00               	movlw	0
  2924  00FDBE  6E02               	movwf	(port2_send3byte@R+1)^(0+1280),c
  2925  00FDC0  6801               	setf	port2_send3byte@R^(0+1280),c
  2926  00FDC2  0E00               	movlw	0
  2927  00FDC4  6E04               	movwf	(port2_send3byte@G+1)^(0+1280),c
  2928  00FDC6  6803               	setf	port2_send3byte@G^(0+1280),c
  2929  00FDC8  0E00               	movlw	0
  2930  00FDCA  6E06               	movwf	(port2_send3byte@B+1)^(0+1280),c
  2931  00FDCC  0E00               	movlw	0
  2932  00FDCE  6E05               	movwf	port2_send3byte@B^(0+1280),c
  2933  00FDD0  ECC5  F076         	call	_port2_send3byte	;wreg free
  2934                           
  2935                           ;main.c: 415:         port2_send3byte(0,255,0);
  2936  00FDD4  0E00               	movlw	0
  2937  00FDD6  6E02               	movwf	(port2_send3byte@R+1)^(0+1280),c
  2938  00FDD8  0E00               	movlw	0
  2939  00FDDA  6E01               	movwf	port2_send3byte@R^(0+1280),c
  2940  00FDDC  0E00               	movlw	0
  2941  00FDDE  6E04               	movwf	(port2_send3byte@G+1)^(0+1280),c
  2942  00FDE0  6803               	setf	port2_send3byte@G^(0+1280),c
  2943  00FDE2  0E00               	movlw	0
  2944  00FDE4  6E06               	movwf	(port2_send3byte@B+1)^(0+1280),c
  2945  00FDE6  0E00               	movlw	0
  2946  00FDE8  6E05               	movwf	port2_send3byte@B^(0+1280),c
  2947  00FDEA  ECC5  F076         	call	_port2_send3byte	;wreg free
  2948                           
  2949                           ;main.c: 416:         port2_send3byte(0,255,255);
  2950  00FDEE  0E00               	movlw	0
  2951  00FDF0  6E02               	movwf	(port2_send3byte@R+1)^(0+1280),c
  2952  00FDF2  0E00               	movlw	0
  2953  00FDF4  6E01               	movwf	port2_send3byte@R^(0+1280),c
  2954  00FDF6  0E00               	movlw	0
  2955  00FDF8  6E04               	movwf	(port2_send3byte@G+1)^(0+1280),c
  2956  00FDFA  6803               	setf	port2_send3byte@G^(0+1280),c
  2957  00FDFC  0E00               	movlw	0
  2958  00FDFE  6E06               	movwf	(port2_send3byte@B+1)^(0+1280),c
  2959  00FE00  6805               	setf	port2_send3byte@B^(0+1280),c
  2960  00FE02  ECC5  F076         	call	_port2_send3byte	;wreg free
  2961  00FE06                     
  2962                           ;main.c: 417:     }
  2963  00FE06  4A20               	infsnz	Gaming@i_301^(0+1280),f,c
  2964  00FE08  2A21               	incf	(Gaming@i_301+1)^(0+1280),f,c
  2965  00FE0A  EF9B  F07E         	goto	l1556
  2966  00FE0E                     l1566:
  2967                           
  2968                           ;main.c: 419:     _delay((unsigned long)((50)*(40000000/4000.0)));
  2969  00FE0E  0E03               	movlw	3
  2970  00FE10  6E09               	movwf	(??_Gaming+1)^(0+1280),c
  2971  00FE12  0E8A               	movlw	138
  2972  00FE14  6E08               	movwf	??_Gaming^(0+1280),c
  2973  00FE16  0E56               	movlw	86
  2974  00FE18                     u2957:
  2975  00FE18  2EE8               	decfsz	wreg,f,c
  2976  00FE1A  D7FE               	bra	u2957
  2977  00FE1C  2E08               	decfsz	??_Gaming^(0+1280),f,c
  2978  00FE1E  D7FC               	bra	u2957
  2979  00FE20  2E09               	decfsz	(??_Gaming+1)^(0+1280),f,c
  2980  00FE22  D7FA               	bra	u2957
  2981  00FE24                     
  2982                           ;main.c: 421:     for(int i = 0;i < 10;i++){
  2983  00FE24  0E00               	movlw	0
  2984  00FE26  6E23               	movwf	(Gaming@i_302+1)^(0+1280),c
  2985  00FE28  0E00               	movlw	0
  2986  00FE2A  6E22               	movwf	Gaming@i_302^(0+1280),c
  2987  00FE2C                     l1570:
  2988  00FE2C  BE23               	btfsc	(Gaming@i_302+1)^(0+1280),7,c
  2989  00FE2E  EF22  F07F         	goto	u2731
  2990  00FE32  5023               	movf	(Gaming@i_302+1)^(0+1280),w,c
  2991  00FE34  E109               	bnz	u2730
  2992  00FE36  0E0A               	movlw	10
  2993  00FE38  5C22               	subwf	Gaming@i_302^(0+1280),w,c
  2994  00FE3A  A0D8               	btfss	status,0,c
  2995  00FE3C  EF22  F07F         	goto	u2731
  2996  00FE40  EF24  F07F         	goto	u2730
  2997  00FE44                     u2731:
  2998  00FE44  EF26  F07F         	goto	l1574
  2999  00FE48                     u2730:
  3000  00FE48  EF82  F07F         	goto	l1580
  3001  00FE4C                     l1574:
  3002                           
  3003                           ;main.c: 422:         port1_send3byte(255,0,255);
  3004  00FE4C  0E00               	movlw	0
  3005  00FE4E  6E02               	movwf	(port1_send3byte@R+1)^(0+1280),c
  3006  00FE50  6801               	setf	port1_send3byte@R^(0+1280),c
  3007  00FE52  0E00               	movlw	0
  3008  00FE54  6E04               	movwf	(port1_send3byte@G+1)^(0+1280),c
  3009  00FE56  0E00               	movlw	0
  3010  00FE58  6E03               	movwf	port1_send3byte@G^(0+1280),c
  3011  00FE5A  0E00               	movlw	0
  3012  00FE5C  6E06               	movwf	(port1_send3byte@B+1)^(0+1280),c
  3013  00FE5E  6805               	setf	port1_send3byte@B^(0+1280),c
  3014  00FE60  ECD6  F073         	call	_port1_send3byte	;wreg free
  3015                           
  3016                           ;main.c: 423:         port1_send3byte(255,0,0);
  3017  00FE64  0E00               	movlw	0
  3018  00FE66  6E02               	movwf	(port1_send3byte@R+1)^(0+1280),c
  3019  00FE68  6801               	setf	port1_send3byte@R^(0+1280),c
  3020  00FE6A  0E00               	movlw	0
  3021  00FE6C  6E04               	movwf	(port1_send3byte@G+1)^(0+1280),c
  3022  00FE6E  0E00               	movlw	0
  3023  00FE70  6E03               	movwf	port1_send3byte@G^(0+1280),c
  3024  00FE72  0E00               	movlw	0
  3025  00FE74  6E06               	movwf	(port1_send3byte@B+1)^(0+1280),c
  3026  00FE76  0E00               	movlw	0
  3027  00FE78  6E05               	movwf	port1_send3byte@B^(0+1280),c
  3028  00FE7A  ECD6  F073         	call	_port1_send3byte	;wreg free
  3029                           
  3030                           ;main.c: 424:         port1_send3byte(255,165,0);
  3031  00FE7E  0E00               	movlw	0
  3032  00FE80  6E02               	movwf	(port1_send3byte@R+1)^(0+1280),c
  3033  00FE82  6801               	setf	port1_send3byte@R^(0+1280),c
  3034  00FE84  0E00               	movlw	0
  3035  00FE86  6E04               	movwf	(port1_send3byte@G+1)^(0+1280),c
  3036  00FE88  0EA5               	movlw	165
  3037  00FE8A  6E03               	movwf	port1_send3byte@G^(0+1280),c
  3038  00FE8C  0E00               	movlw	0
  3039  00FE8E  6E06               	movwf	(port1_send3byte@B+1)^(0+1280),c
  3040  00FE90  0E00               	movlw	0
  3041  00FE92  6E05               	movwf	port1_send3byte@B^(0+1280),c
  3042  00FE94  ECD6  F073         	call	_port1_send3byte	;wreg free
  3043                           
  3044                           ;main.c: 425:         port1_send3byte(255,255,0);
  3045  00FE98  0E00               	movlw	0
  3046  00FE9A  6E02               	movwf	(port1_send3byte@R+1)^(0+1280),c
  3047  00FE9C  6801               	setf	port1_send3byte@R^(0+1280),c
  3048  00FE9E  0E00               	movlw	0
  3049  00FEA0  6E04               	movwf	(port1_send3byte@G+1)^(0+1280),c
  3050  00FEA2  6803               	setf	port1_send3byte@G^(0+1280),c
  3051  00FEA4  0E00               	movlw	0
  3052  00FEA6  6E06               	movwf	(port1_send3byte@B+1)^(0+1280),c
  3053  00FEA8  0E00               	movlw	0
  3054  00FEAA  6E05               	movwf	port1_send3byte@B^(0+1280),c
  3055  00FEAC  ECD6  F073         	call	_port1_send3byte	;wreg free
  3056                           
  3057                           ;main.c: 426:         port1_send3byte(0,255,0);
  3058  00FEB0  0E00               	movlw	0
  3059  00FEB2  6E02               	movwf	(port1_send3byte@R+1)^(0+1280),c
  3060  00FEB4  0E00               	movlw	0
  3061  00FEB6  6E01               	movwf	port1_send3byte@R^(0+1280),c
  3062  00FEB8  0E00               	movlw	0
  3063  00FEBA  6E04               	movwf	(port1_send3byte@G+1)^(0+1280),c
  3064  00FEBC  6803               	setf	port1_send3byte@G^(0+1280),c
  3065  00FEBE  0E00               	movlw	0
  3066  00FEC0  6E06               	movwf	(port1_send3byte@B+1)^(0+1280),c
  3067  00FEC2  0E00               	movlw	0
  3068  00FEC4  6E05               	movwf	port1_send3byte@B^(0+1280),c
  3069  00FEC6  ECD6  F073         	call	_port1_send3byte	;wreg free
  3070                           
  3071                           ;main.c: 427:         port1_send3byte(0,255,255);
  3072  00FECA  0E00               	movlw	0
  3073  00FECC  6E02               	movwf	(port1_send3byte@R+1)^(0+1280),c
  3074  00FECE  0E00               	movlw	0
  3075  00FED0  6E01               	movwf	port1_send3byte@R^(0+1280),c
  3076  00FED2  0E00               	movlw	0
  3077  00FED4  6E04               	movwf	(port1_send3byte@G+1)^(0+1280),c
  3078  00FED6  6803               	setf	port1_send3byte@G^(0+1280),c
  3079  00FED8  0E00               	movlw	0
  3080  00FEDA  6E06               	movwf	(port1_send3byte@B+1)^(0+1280),c
  3081  00FEDC  6805               	setf	port1_send3byte@B^(0+1280),c
  3082  00FEDE  ECD6  F073         	call	_port1_send3byte	;wreg free
  3083                           
  3084                           ;main.c: 428:         port1_send3byte(0,0,255);
  3085  00FEE2  0E00               	movlw	0
  3086  00FEE4  6E02               	movwf	(port1_send3byte@R+1)^(0+1280),c
  3087  00FEE6  0E00               	movlw	0
  3088  00FEE8  6E01               	movwf	port1_send3byte@R^(0+1280),c
  3089  00FEEA  0E00               	movlw	0
  3090  00FEEC  6E04               	movwf	(port1_send3byte@G+1)^(0+1280),c
  3091  00FEEE  0E00               	movlw	0
  3092  00FEF0  6E03               	movwf	port1_send3byte@G^(0+1280),c
  3093  00FEF2  0E00               	movlw	0
  3094  00FEF4  6E06               	movwf	(port1_send3byte@B+1)^(0+1280),c
  3095  00FEF6  6805               	setf	port1_send3byte@B^(0+1280),c
  3096  00FEF8  ECD6  F073         	call	_port1_send3byte	;wreg free
  3097  00FEFC                     
  3098                           ;main.c: 429:     }
  3099  00FEFC  4A22               	infsnz	Gaming@i_302^(0+1280),f,c
  3100  00FEFE  2A23               	incf	(Gaming@i_302+1)^(0+1280),f,c
  3101  00FF00  EF16  F07F         	goto	l1570
  3102  00FF04                     l1580:
  3103                           
  3104                           ;main.c: 431:     for(int i = 0;i < 10;i++){
  3105  00FF04  0E00               	movlw	0
  3106  00FF06  6E25               	movwf	(Gaming@i_303+1)^(0+1280),c
  3107  00FF08  0E00               	movlw	0
  3108  00FF0A  6E24               	movwf	Gaming@i_303^(0+1280),c
  3109  00FF0C                     l1582:
  3110  00FF0C  BE25               	btfsc	(Gaming@i_303+1)^(0+1280),7,c
  3111  00FF0E  EF92  F07F         	goto	u2741
  3112  00FF12  5025               	movf	(Gaming@i_303+1)^(0+1280),w,c
  3113  00FF14  E109               	bnz	u2740
  3114  00FF16  0E0A               	movlw	10
  3115  00FF18  5C24               	subwf	Gaming@i_303^(0+1280),w,c
  3116  00FF1A  A0D8               	btfss	status,0,c
  3117  00FF1C  EF92  F07F         	goto	u2741
  3118  00FF20  EF94  F07F         	goto	u2740
  3119  00FF24                     u2741:
  3120  00FF24  EF96  F07F         	goto	l1586
  3121  00FF28                     u2740:
  3122  00FF28  EFF2  F07F         	goto	l1592
  3123  00FF2C                     l1586:
  3124                           
  3125                           ;main.c: 432:         port2_send3byte(255,0,255);
  3126  00FF2C  0E00               	movlw	0
  3127  00FF2E  6E02               	movwf	(port2_send3byte@R+1)^(0+1280),c
  3128  00FF30  6801               	setf	port2_send3byte@R^(0+1280),c
  3129  00FF32  0E00               	movlw	0
  3130  00FF34  6E04               	movwf	(port2_send3byte@G+1)^(0+1280),c
  3131  00FF36  0E00               	movlw	0
  3132  00FF38  6E03               	movwf	port2_send3byte@G^(0+1280),c
  3133  00FF3A  0E00               	movlw	0
  3134  00FF3C  6E06               	movwf	(port2_send3byte@B+1)^(0+1280),c
  3135  00FF3E  6805               	setf	port2_send3byte@B^(0+1280),c
  3136  00FF40  ECC5  F076         	call	_port2_send3byte	;wreg free
  3137                           
  3138                           ;main.c: 433:         port2_send3byte(255,0,0);
  3139  00FF44  0E00               	movlw	0
  3140  00FF46  6E02               	movwf	(port2_send3byte@R+1)^(0+1280),c
  3141  00FF48  6801               	setf	port2_send3byte@R^(0+1280),c
  3142  00FF4A  0E00               	movlw	0
  3143  00FF4C  6E04               	movwf	(port2_send3byte@G+1)^(0+1280),c
  3144  00FF4E  0E00               	movlw	0
  3145  00FF50  6E03               	movwf	port2_send3byte@G^(0+1280),c
  3146  00FF52  0E00               	movlw	0
  3147  00FF54  6E06               	movwf	(port2_send3byte@B+1)^(0+1280),c
  3148  00FF56  0E00               	movlw	0
  3149  00FF58  6E05               	movwf	port2_send3byte@B^(0+1280),c
  3150  00FF5A  ECC5  F076         	call	_port2_send3byte	;wreg free
  3151                           
  3152                           ;main.c: 434:         port2_send3byte(255,165,0);
  3153  00FF5E  0E00               	movlw	0
  3154  00FF60  6E02               	movwf	(port2_send3byte@R+1)^(0+1280),c
  3155  00FF62  6801               	setf	port2_send3byte@R^(0+1280),c
  3156  00FF64  0E00               	movlw	0
  3157  00FF66  6E04               	movwf	(port2_send3byte@G+1)^(0+1280),c
  3158  00FF68  0EA5               	movlw	165
  3159  00FF6A  6E03               	movwf	port2_send3byte@G^(0+1280),c
  3160  00FF6C  0E00               	movlw	0
  3161  00FF6E  6E06               	movwf	(port2_send3byte@B+1)^(0+1280),c
  3162  00FF70  0E00               	movlw	0
  3163  00FF72  6E05               	movwf	port2_send3byte@B^(0+1280),c
  3164  00FF74  ECC5  F076         	call	_port2_send3byte	;wreg free
  3165                           
  3166                           ;main.c: 435:         port2_send3byte(255,255,0);
  3167  00FF78  0E00               	movlw	0
  3168  00FF7A  6E02               	movwf	(port2_send3byte@R+1)^(0+1280),c
  3169  00FF7C  6801               	setf	port2_send3byte@R^(0+1280),c
  3170  00FF7E  0E00               	movlw	0
  3171  00FF80  6E04               	movwf	(port2_send3byte@G+1)^(0+1280),c
  3172  00FF82  6803               	setf	port2_send3byte@G^(0+1280),c
  3173  00FF84  0E00               	movlw	0
  3174  00FF86  6E06               	movwf	(port2_send3byte@B+1)^(0+1280),c
  3175  00FF88  0E00               	movlw	0
  3176  00FF8A  6E05               	movwf	port2_send3byte@B^(0+1280),c
  3177  00FF8C  ECC5  F076         	call	_port2_send3byte	;wreg free
  3178                           
  3179                           ;main.c: 436:         port2_send3byte(0,255,0);
  3180  00FF90  0E00               	movlw	0
  3181  00FF92  6E02               	movwf	(port2_send3byte@R+1)^(0+1280),c
  3182  00FF94  0E00               	movlw	0
  3183  00FF96  6E01               	movwf	port2_send3byte@R^(0+1280),c
  3184  00FF98  0E00               	movlw	0
  3185  00FF9A  6E04               	movwf	(port2_send3byte@G+1)^(0+1280),c
  3186  00FF9C  6803               	setf	port2_send3byte@G^(0+1280),c
  3187  00FF9E  0E00               	movlw	0
  3188  00FFA0  6E06               	movwf	(port2_send3byte@B+1)^(0+1280),c
  3189  00FFA2  0E00               	movlw	0
  3190  00FFA4  6E05               	movwf	port2_send3byte@B^(0+1280),c
  3191  00FFA6  ECC5  F076         	call	_port2_send3byte	;wreg free
  3192                           
  3193                           ;main.c: 437:         port2_send3byte(0,255,255);
  3194  00FFAA  0E00               	movlw	0
  3195  00FFAC  6E02               	movwf	(port2_send3byte@R+1)^(0+1280),c
  3196  00FFAE  0E00               	movlw	0
  3197  00FFB0  6E01               	movwf	port2_send3byte@R^(0+1280),c
  3198  00FFB2  0E00               	movlw	0
  3199  00FFB4  6E04               	movwf	(port2_send3byte@G+1)^(0+1280),c
  3200  00FFB6  6803               	setf	port2_send3byte@G^(0+1280),c
  3201  00FFB8  0E00               	movlw	0
  3202  00FFBA  6E06               	movwf	(port2_send3byte@B+1)^(0+1280),c
  3203  00FFBC  6805               	setf	port2_send3byte@B^(0+1280),c
  3204  00FFBE  ECC5  F076         	call	_port2_send3byte	;wreg free
  3205                           
  3206                           ;main.c: 438:         port2_send3byte(0,0,255);
  3207  00FFC2  0E00               	movlw	0
  3208  00FFC4  6E02               	movwf	(port2_send3byte@R+1)^(0+1280),c
  3209  00FFC6  0E00               	movlw	0
  3210  00FFC8  6E01               	movwf	port2_send3byte@R^(0+1280),c
  3211  00FFCA  0E00               	movlw	0
  3212  00FFCC  6E04               	movwf	(port2_send3byte@G+1)^(0+1280),c
  3213  00FFCE  0E00               	movlw	0
  3214  00FFD0  6E03               	movwf	port2_send3byte@G^(0+1280),c
  3215  00FFD2  0E00               	movlw	0
  3216  00FFD4  6E06               	movwf	(port2_send3byte@B+1)^(0+1280),c
  3217  00FFD6  6805               	setf	port2_send3byte@B^(0+1280),c
  3218  00FFD8  ECC5  F076         	call	_port2_send3byte	;wreg free
  3219  00FFDC                     
  3220                           ;main.c: 439:     }
  3221  00FFDC  4A24               	infsnz	Gaming@i_303^(0+1280),f,c
  3222  00FFDE  2A25               	incf	(Gaming@i_303+1)^(0+1280),f,c
  3223  00FFE0  EF86  F07F         	goto	l1582
  3224  00FFE4                     l1592:
  3225                           
  3226                           ;main.c: 441:     _delay((unsigned long)((50)*(40000000/4000.0)));
  3227  00FFE4  0E03               	movlw	3
  3228  00FFE6  6E09               	movwf	(??_Gaming+1)^(0+1280),c
  3229  00FFE8  0E8A               	movlw	138
  3230  00FFEA  6E08               	movwf	??_Gaming^(0+1280),c
  3231  00FFEC  0E56               	movlw	86
  3232  00FFEE                     u2967:
  3233  00FFEE  2EE8               	decfsz	wreg,f,c
  3234  00FFF0  D7FE               	bra	u2967
  3235  00FFF2  2E08               	decfsz	??_Gaming^(0+1280),f,c
  3236  00FFF4  D7FC               	bra	u2967
  3237  00FFF6  2E09               	decfsz	(??_Gaming+1)^(0+1280),f,c
  3238  00FFF8  D7FA               	bra	u2967
  3239  00FFFA  0012               	return		;funcret
  3240  00FFFC                     __end_of_Gaming:
  3241                           	callstack 0
  3242                           
  3243 ;; *************** function _Blue *****************
  3244 ;; Defined at:
  3245 ;;		line 239 in file "main.c"
  3246 ;; Parameters:    Size  Location     Type
  3247 ;;		None
  3248 ;; Auto vars:     Size  Location     Type
  3249 ;;  i               2   15[COMRAM] int 
  3250 ;;  i               2   13[COMRAM] int 
  3251 ;;  i               2   11[COMRAM] int 
  3252 ;;  i               2    9[COMRAM] int 
  3253 ;; Return value:  Size  Location     Type
  3254 ;;                  2  168[None  ] int 
  3255 ;; Registers used:
  3256 ;;		wreg, fsr2l, fsr2h, status,2, status,0, pcl, pclath, pclatu, tosl, prodl, prodh, cstack
  3257 ;; Tracked objects:
  3258 ;;		On entry : 0/0
  3259 ;;		On exit  : 0/0
  3260 ;;		Unchanged: 0/0
  3261 ;; Data sizes:     COMRAM   BANK5   BANK6   BANK7   BANK8   BANK9  BANK10  BANK11  BANK12  BANK13  BANK14  BANK15  BANK1
      +6  BANK17  BANK18  BANK19  BANK20  BANK21  BANK22  BANK23  BANK24  BANK25  BANK26  BANK27  BANK28  BANK29  BANK30  BANK3
      +1  BANK32  BANK33  BANK34  BANK35  BANK36
  3262 ;;      Params:         0       0       0       0       0       0       0       0       0       0       0       0       
      +0       0       0       0       0       0       0       0       0       0       0       0       0       0       0       
      +0       0       0       0       0       0
  3263 ;;      Locals:         8       0       0       0       0       0       0       0       0       0       0       0       
      +0       0       0       0       0       0       0       0       0       0       0       0       0       0       0       
      +0       0       0       0       0       0
  3264 ;;      Temps:          2       0       0       0       0       0       0       0       0       0       0       0       
      +0       0       0       0       0       0       0       0       0       0       0       0       0       0       0       
      +0       0       0       0       0       0
  3265 ;;      Totals:        10       0       0       0       0       0       0       0       0       0       0       0       
      +0       0       0       0       0       0       0       0       0       0       0       0       0       0       0       
      +0       0       0       0       0       0
  3266 ;;Total ram usage:       10 bytes
  3267 ;; Hardware stack levels used: 1
  3268 ;; Hardware stack levels required when called: 2
  3269 ;; This function calls:
  3270 ;;		_port1_send3byte
  3271 ;;		_port2_send3byte
  3272 ;; This function is called by:
  3273 ;;		_main
  3274 ;; This function uses a non-reentrant model
  3275 ;;
  3276                           
  3277                           	psect	text7
  3278  00E090                     __ptext7:
  3279                           	callstack 0
  3280  00E090                     _Blue:
  3281                           	callstack 124
  3282  00E090                     l169:
  3283  00E090                     
  3284                           ;main.c: 241:         if(PORTAbits.RA0 != nanntoka){break;}
  3285  00E090  B0CE               	btfsc	206,0,c	;volatile
  3286  00E092  EF4D  F070         	goto	u2511
  3287  00E096  EF50  F070         	goto	u2510
  3288  00E09A                     u2511:
  3289  00E09A  0E01               	movlw	1
  3290  00E09C  EF51  F070         	goto	u2520
  3291  00E0A0                     u2510:
  3292  00E0A0  0E00               	movlw	0
  3293  00E0A2                     u2520:
  3294  00E0A2  6E08               	movwf	??_Blue^(0+1280),c
  3295  00E0A4  6A09               	clrf	(??_Blue+1)^(0+1280),c
  3296  00E0A6  5028               	movf	_nanntoka^(0+1280),w,c
  3297  00E0A8  1808               	xorwf	??_Blue^(0+1280),w,c
  3298  00E0AA  E109               	bnz	u2530
  3299  00E0AC  5029               	movf	(_nanntoka+1)^(0+1280),w,c
  3300  00E0AE  1809               	xorwf	(??_Blue+1)^(0+1280),w,c
  3301  00E0B0  B4D8               	btfsc	status,2,c
  3302  00E0B2  EF5D  F070         	goto	u2531
  3303  00E0B6  EF5F  F070         	goto	u2530
  3304  00E0BA                     u2531:
  3305  00E0BA  EF61  F070         	goto	l1356
  3306  00E0BE                     u2530:
  3307  00E0BE  EF0E  F072         	goto	l182
  3308  00E0C2                     l1356:
  3309                           
  3310                           ;main.c: 243:         for(int i = 0;i < 35;i++){
  3311  00E0C2  0E00               	movlw	0
  3312  00E0C4  6E0B               	movwf	(Blue@i+1)^(0+1280),c
  3313  00E0C6  0E00               	movlw	0
  3314  00E0C8  6E0A               	movwf	Blue@i^(0+1280),c
  3315  00E0CA                     l1362:
  3316                           
  3317                           ;main.c: 244:             port1_send3byte(0,0,255);
  3318  00E0CA  0E00               	movlw	0
  3319  00E0CC  6E02               	movwf	(port1_send3byte@R+1)^(0+1280),c
  3320  00E0CE  0E00               	movlw	0
  3321  00E0D0  6E01               	movwf	port1_send3byte@R^(0+1280),c
  3322  00E0D2  0E00               	movlw	0
  3323  00E0D4  6E04               	movwf	(port1_send3byte@G+1)^(0+1280),c
  3324  00E0D6  0E00               	movlw	0
  3325  00E0D8  6E03               	movwf	port1_send3byte@G^(0+1280),c
  3326  00E0DA  0E00               	movlw	0
  3327  00E0DC  6E06               	movwf	(port1_send3byte@B+1)^(0+1280),c
  3328  00E0DE  6805               	setf	port1_send3byte@B^(0+1280),c
  3329  00E0E0  ECD6  F073         	call	_port1_send3byte	;wreg free
  3330                           
  3331                           ;main.c: 245:             port1_send3byte(0,0,255);
  3332  00E0E4  0E00               	movlw	0
  3333  00E0E6  6E02               	movwf	(port1_send3byte@R+1)^(0+1280),c
  3334  00E0E8  0E00               	movlw	0
  3335  00E0EA  6E01               	movwf	port1_send3byte@R^(0+1280),c
  3336  00E0EC  0E00               	movlw	0
  3337  00E0EE  6E04               	movwf	(port1_send3byte@G+1)^(0+1280),c
  3338  00E0F0  0E00               	movlw	0
  3339  00E0F2  6E03               	movwf	port1_send3byte@G^(0+1280),c
  3340  00E0F4  0E00               	movlw	0
  3341  00E0F6  6E06               	movwf	(port1_send3byte@B+1)^(0+1280),c
  3342  00E0F8  6805               	setf	port1_send3byte@B^(0+1280),c
  3343  00E0FA  ECD6  F073         	call	_port1_send3byte	;wreg free
  3344                           
  3345                           ;main.c: 246:             port1_send3byte(0,0,255);
  3346  00E0FE  0E00               	movlw	0
  3347  00E100  6E02               	movwf	(port1_send3byte@R+1)^(0+1280),c
  3348  00E102  0E00               	movlw	0
  3349  00E104  6E01               	movwf	port1_send3byte@R^(0+1280),c
  3350  00E106  0E00               	movlw	0
  3351  00E108  6E04               	movwf	(port1_send3byte@G+1)^(0+1280),c
  3352  00E10A  0E00               	movlw	0
  3353  00E10C  6E03               	movwf	port1_send3byte@G^(0+1280),c
  3354  00E10E  0E00               	movlw	0
  3355  00E110  6E06               	movwf	(port1_send3byte@B+1)^(0+1280),c
  3356  00E112  6805               	setf	port1_send3byte@B^(0+1280),c
  3357  00E114  ECD6  F073         	call	_port1_send3byte	;wreg free
  3358                           
  3359                           ;main.c: 247:             port1_send3byte(186,255,255);
  3360  00E118  0E00               	movlw	0
  3361  00E11A  6E02               	movwf	(port1_send3byte@R+1)^(0+1280),c
  3362  00E11C  0EBA               	movlw	186
  3363  00E11E  6E01               	movwf	port1_send3byte@R^(0+1280),c
  3364  00E120  0E00               	movlw	0
  3365  00E122  6E04               	movwf	(port1_send3byte@G+1)^(0+1280),c
  3366  00E124  6803               	setf	port1_send3byte@G^(0+1280),c
  3367  00E126  0E00               	movlw	0
  3368  00E128  6E06               	movwf	(port1_send3byte@B+1)^(0+1280),c
  3369  00E12A  6805               	setf	port1_send3byte@B^(0+1280),c
  3370  00E12C  ECD6  F073         	call	_port1_send3byte	;wreg free
  3371                           
  3372                           ;main.c: 248:             port1_send3byte(186,255,255);
  3373  00E130  0E00               	movlw	0
  3374  00E132  6E02               	movwf	(port1_send3byte@R+1)^(0+1280),c
  3375  00E134  0EBA               	movlw	186
  3376  00E136  6E01               	movwf	port1_send3byte@R^(0+1280),c
  3377  00E138  0E00               	movlw	0
  3378  00E13A  6E04               	movwf	(port1_send3byte@G+1)^(0+1280),c
  3379  00E13C  6803               	setf	port1_send3byte@G^(0+1280),c
  3380  00E13E  0E00               	movlw	0
  3381  00E140  6E06               	movwf	(port1_send3byte@B+1)^(0+1280),c
  3382  00E142  6805               	setf	port1_send3byte@B^(0+1280),c
  3383  00E144  ECD6  F073         	call	_port1_send3byte	;wreg free
  3384                           
  3385                           ;main.c: 249:             port1_send3byte(186,255,255);
  3386  00E148  0E00               	movlw	0
  3387  00E14A  6E02               	movwf	(port1_send3byte@R+1)^(0+1280),c
  3388  00E14C  0EBA               	movlw	186
  3389  00E14E  6E01               	movwf	port1_send3byte@R^(0+1280),c
  3390  00E150  0E00               	movlw	0
  3391  00E152  6E04               	movwf	(port1_send3byte@G+1)^(0+1280),c
  3392  00E154  6803               	setf	port1_send3byte@G^(0+1280),c
  3393  00E156  0E00               	movlw	0
  3394  00E158  6E06               	movwf	(port1_send3byte@B+1)^(0+1280),c
  3395  00E15A  6805               	setf	port1_send3byte@B^(0+1280),c
  3396  00E15C  ECD6  F073         	call	_port1_send3byte	;wreg free
  3397  00E160                     
  3398                           ;main.c: 250:         }
  3399  00E160  4A0A               	infsnz	Blue@i^(0+1280),f,c
  3400  00E162  2A0B               	incf	(Blue@i+1)^(0+1280),f,c
  3401  00E164  BE0B               	btfsc	(Blue@i+1)^(0+1280),7,c
  3402  00E166  EFBE  F070         	goto	u2541
  3403  00E16A  500B               	movf	(Blue@i+1)^(0+1280),w,c
  3404  00E16C  E109               	bnz	u2540
  3405  00E16E  0E23               	movlw	35
  3406  00E170  5C0A               	subwf	Blue@i^(0+1280),w,c
  3407  00E172  A0D8               	btfss	status,0,c
  3408  00E174  EFBE  F070         	goto	u2541
  3409  00E178  EFC0  F070         	goto	u2540
  3410  00E17C                     u2541:
  3411  00E17C  EF65  F070         	goto	l1362
  3412  00E180                     u2540:
  3413  00E180                     
  3414                           ;main.c: 252:         for(int i = 0;i < 10;i++){
  3415  00E180  0E00               	movlw	0
  3416  00E182  6E0D               	movwf	(Blue@i_286+1)^(0+1280),c
  3417  00E184  0E00               	movlw	0
  3418  00E186  6E0C               	movwf	Blue@i_286^(0+1280),c
  3419  00E188                     l1374:
  3420                           
  3421                           ;main.c: 253:             port2_send3byte(186,255,255);
  3422  00E188  0E00               	movlw	0
  3423  00E18A  6E02               	movwf	(port2_send3byte@R+1)^(0+1280),c
  3424  00E18C  0EBA               	movlw	186
  3425  00E18E  6E01               	movwf	port2_send3byte@R^(0+1280),c
  3426  00E190  0E00               	movlw	0
  3427  00E192  6E04               	movwf	(port2_send3byte@G+1)^(0+1280),c
  3428  00E194  6803               	setf	port2_send3byte@G^(0+1280),c
  3429  00E196  0E00               	movlw	0
  3430  00E198  6E06               	movwf	(port2_send3byte@B+1)^(0+1280),c
  3431  00E19A  6805               	setf	port2_send3byte@B^(0+1280),c
  3432  00E19C  ECC5  F076         	call	_port2_send3byte	;wreg free
  3433                           
  3434                           ;main.c: 254:             port2_send3byte(186,255,255);
  3435  00E1A0  0E00               	movlw	0
  3436  00E1A2  6E02               	movwf	(port2_send3byte@R+1)^(0+1280),c
  3437  00E1A4  0EBA               	movlw	186
  3438  00E1A6  6E01               	movwf	port2_send3byte@R^(0+1280),c
  3439  00E1A8  0E00               	movlw	0
  3440  00E1AA  6E04               	movwf	(port2_send3byte@G+1)^(0+1280),c
  3441  00E1AC  6803               	setf	port2_send3byte@G^(0+1280),c
  3442  00E1AE  0E00               	movlw	0
  3443  00E1B0  6E06               	movwf	(port2_send3byte@B+1)^(0+1280),c
  3444  00E1B2  6805               	setf	port2_send3byte@B^(0+1280),c
  3445  00E1B4  ECC5  F076         	call	_port2_send3byte	;wreg free
  3446                           
  3447                           ;main.c: 255:             port2_send3byte(186,255,255);
  3448  00E1B8  0E00               	movlw	0
  3449  00E1BA  6E02               	movwf	(port2_send3byte@R+1)^(0+1280),c
  3450  00E1BC  0EBA               	movlw	186
  3451  00E1BE  6E01               	movwf	port2_send3byte@R^(0+1280),c
  3452  00E1C0  0E00               	movlw	0
  3453  00E1C2  6E04               	movwf	(port2_send3byte@G+1)^(0+1280),c
  3454  00E1C4  6803               	setf	port2_send3byte@G^(0+1280),c
  3455  00E1C6  0E00               	movlw	0
  3456  00E1C8  6E06               	movwf	(port2_send3byte@B+1)^(0+1280),c
  3457  00E1CA  6805               	setf	port2_send3byte@B^(0+1280),c
  3458  00E1CC  ECC5  F076         	call	_port2_send3byte	;wreg free
  3459                           
  3460                           ;main.c: 256:             port2_send3byte(0,0,255);
  3461  00E1D0  0E00               	movlw	0
  3462  00E1D2  6E02               	movwf	(port2_send3byte@R+1)^(0+1280),c
  3463  00E1D4  0E00               	movlw	0
  3464  00E1D6  6E01               	movwf	port2_send3byte@R^(0+1280),c
  3465  00E1D8  0E00               	movlw	0
  3466  00E1DA  6E04               	movwf	(port2_send3byte@G+1)^(0+1280),c
  3467  00E1DC  0E00               	movlw	0
  3468  00E1DE  6E03               	movwf	port2_send3byte@G^(0+1280),c
  3469  00E1E0  0E00               	movlw	0
  3470  00E1E2  6E06               	movwf	(port2_send3byte@B+1)^(0+1280),c
  3471  00E1E4  6805               	setf	port2_send3byte@B^(0+1280),c
  3472  00E1E6  ECC5  F076         	call	_port2_send3byte	;wreg free
  3473                           
  3474                           ;main.c: 257:             port2_send3byte(0,0,255);
  3475  00E1EA  0E00               	movlw	0
  3476  00E1EC  6E02               	movwf	(port2_send3byte@R+1)^(0+1280),c
  3477  00E1EE  0E00               	movlw	0
  3478  00E1F0  6E01               	movwf	port2_send3byte@R^(0+1280),c
  3479  00E1F2  0E00               	movlw	0
  3480  00E1F4  6E04               	movwf	(port2_send3byte@G+1)^(0+1280),c
  3481  00E1F6  0E00               	movlw	0
  3482  00E1F8  6E03               	movwf	port2_send3byte@G^(0+1280),c
  3483  00E1FA  0E00               	movlw	0
  3484  00E1FC  6E06               	movwf	(port2_send3byte@B+1)^(0+1280),c
  3485  00E1FE  6805               	setf	port2_send3byte@B^(0+1280),c
  3486  00E200  ECC5  F076         	call	_port2_send3byte	;wreg free
  3487                           
  3488                           ;main.c: 258:             port2_send3byte(0,0,255);
  3489  00E204  0E00               	movlw	0
  3490  00E206  6E02               	movwf	(port2_send3byte@R+1)^(0+1280),c
  3491  00E208  0E00               	movlw	0
  3492  00E20A  6E01               	movwf	port2_send3byte@R^(0+1280),c
  3493  00E20C  0E00               	movlw	0
  3494  00E20E  6E04               	movwf	(port2_send3byte@G+1)^(0+1280),c
  3495  00E210  0E00               	movlw	0
  3496  00E212  6E03               	movwf	port2_send3byte@G^(0+1280),c
  3497  00E214  0E00               	movlw	0
  3498  00E216  6E06               	movwf	(port2_send3byte@B+1)^(0+1280),c
  3499  00E218  6805               	setf	port2_send3byte@B^(0+1280),c
  3500  00E21A  ECC5  F076         	call	_port2_send3byte	;wreg free
  3501  00E21E                     
  3502                           ;main.c: 259:         }
  3503  00E21E  4A0C               	infsnz	Blue@i_286^(0+1280),f,c
  3504  00E220  2A0D               	incf	(Blue@i_286+1)^(0+1280),f,c
  3505  00E222  BE0D               	btfsc	(Blue@i_286+1)^(0+1280),7,c
  3506  00E224  EF1D  F071         	goto	u2551
  3507  00E228  500D               	movf	(Blue@i_286+1)^(0+1280),w,c
  3508  00E22A  E109               	bnz	u2550
  3509  00E22C  0E0A               	movlw	10
  3510  00E22E  5C0C               	subwf	Blue@i_286^(0+1280),w,c
  3511  00E230  A0D8               	btfss	status,0,c
  3512  00E232  EF1D  F071         	goto	u2551
  3513  00E236  EF1F  F071         	goto	u2550
  3514  00E23A                     u2551:
  3515  00E23A  EFC4  F070         	goto	l1374
  3516  00E23E                     u2550:
  3517  00E23E                     
  3518                           ;main.c: 261:         _delay((unsigned long)((150)*(40000000/4000.0)));
  3519  00E23E  0E08               	movlw	8
  3520  00E240  6E09               	movwf	(??_Blue+1)^(0+1280),c
  3521  00E242  0E9D               	movlw	157
  3522  00E244  6E08               	movwf	??_Blue^(0+1280),c
  3523  00E246  0E06               	movlw	6
  3524  00E248                     u2977:
  3525  00E248  2EE8               	decfsz	wreg,f,c
  3526  00E24A  D7FE               	bra	u2977
  3527  00E24C  2E08               	decfsz	??_Blue^(0+1280),f,c
  3528  00E24E  D7FC               	bra	u2977
  3529  00E250  2E09               	decfsz	(??_Blue+1)^(0+1280),f,c
  3530  00E252  D7FA               	bra	u2977
  3531  00E254                     
  3532                           ;main.c: 263:         if(PORTAbits.RA0 != nanntoka){break;}
  3533  00E254  B0CE               	btfsc	206,0,c	;volatile
  3534  00E256  EF2F  F071         	goto	u2561
  3535  00E25A  EF32  F071         	goto	u2560
  3536  00E25E                     u2561:
  3537  00E25E  0E01               	movlw	1
  3538  00E260  EF33  F071         	goto	u2570
  3539  00E264                     u2560:
  3540  00E264  0E00               	movlw	0
  3541  00E266                     u2570:
  3542  00E266  6E08               	movwf	??_Blue^(0+1280),c
  3543  00E268  6A09               	clrf	(??_Blue+1)^(0+1280),c
  3544  00E26A  5028               	movf	_nanntoka^(0+1280),w,c
  3545  00E26C  1808               	xorwf	??_Blue^(0+1280),w,c
  3546  00E26E  E109               	bnz	u2580
  3547  00E270  5029               	movf	(_nanntoka+1)^(0+1280),w,c
  3548  00E272  1809               	xorwf	(??_Blue+1)^(0+1280),w,c
  3549  00E274  B4D8               	btfsc	status,2,c
  3550  00E276  EF3F  F071         	goto	u2581
  3551  00E27A  EF41  F071         	goto	u2580
  3552  00E27E                     u2581:
  3553  00E27E  EF43  F071         	goto	l1386
  3554  00E282                     u2580:
  3555  00E282  EF0E  F072         	goto	l182
  3556  00E286                     l1386:
  3557                           
  3558                           ;main.c: 265:         for(int i = 0;i < 10;i++){
  3559  00E286  0E00               	movlw	0
  3560  00E288  6E0F               	movwf	(Blue@i_287+1)^(0+1280),c
  3561  00E28A  0E00               	movlw	0
  3562  00E28C  6E0E               	movwf	Blue@i_287^(0+1280),c
  3563  00E28E                     l1392:
  3564                           
  3565                           ;main.c: 266:             port1_send3byte(186,255,255);
  3566  00E28E  0E00               	movlw	0
  3567  00E290  6E02               	movwf	(port1_send3byte@R+1)^(0+1280),c
  3568  00E292  0EBA               	movlw	186
  3569  00E294  6E01               	movwf	port1_send3byte@R^(0+1280),c
  3570  00E296  0E00               	movlw	0
  3571  00E298  6E04               	movwf	(port1_send3byte@G+1)^(0+1280),c
  3572  00E29A  6803               	setf	port1_send3byte@G^(0+1280),c
  3573  00E29C  0E00               	movlw	0
  3574  00E29E  6E06               	movwf	(port1_send3byte@B+1)^(0+1280),c
  3575  00E2A0  6805               	setf	port1_send3byte@B^(0+1280),c
  3576  00E2A2  ECD6  F073         	call	_port1_send3byte	;wreg free
  3577                           
  3578                           ;main.c: 267:             port1_send3byte(186,255,255);
  3579  00E2A6  0E00               	movlw	0
  3580  00E2A8  6E02               	movwf	(port1_send3byte@R+1)^(0+1280),c
  3581  00E2AA  0EBA               	movlw	186
  3582  00E2AC  6E01               	movwf	port1_send3byte@R^(0+1280),c
  3583  00E2AE  0E00               	movlw	0
  3584  00E2B0  6E04               	movwf	(port1_send3byte@G+1)^(0+1280),c
  3585  00E2B2  6803               	setf	port1_send3byte@G^(0+1280),c
  3586  00E2B4  0E00               	movlw	0
  3587  00E2B6  6E06               	movwf	(port1_send3byte@B+1)^(0+1280),c
  3588  00E2B8  6805               	setf	port1_send3byte@B^(0+1280),c
  3589  00E2BA  ECD6  F073         	call	_port1_send3byte	;wreg free
  3590                           
  3591                           ;main.c: 268:             port1_send3byte(186,255,255);
  3592  00E2BE  0E00               	movlw	0
  3593  00E2C0  6E02               	movwf	(port1_send3byte@R+1)^(0+1280),c
  3594  00E2C2  0EBA               	movlw	186
  3595  00E2C4  6E01               	movwf	port1_send3byte@R^(0+1280),c
  3596  00E2C6  0E00               	movlw	0
  3597  00E2C8  6E04               	movwf	(port1_send3byte@G+1)^(0+1280),c
  3598  00E2CA  6803               	setf	port1_send3byte@G^(0+1280),c
  3599  00E2CC  0E00               	movlw	0
  3600  00E2CE  6E06               	movwf	(port1_send3byte@B+1)^(0+1280),c
  3601  00E2D0  6805               	setf	port1_send3byte@B^(0+1280),c
  3602  00E2D2  ECD6  F073         	call	_port1_send3byte	;wreg free
  3603                           
  3604                           ;main.c: 269:             port1_send3byte(0,0,255);
  3605  00E2D6  0E00               	movlw	0
  3606  00E2D8  6E02               	movwf	(port1_send3byte@R+1)^(0+1280),c
  3607  00E2DA  0E00               	movlw	0
  3608  00E2DC  6E01               	movwf	port1_send3byte@R^(0+1280),c
  3609  00E2DE  0E00               	movlw	0
  3610  00E2E0  6E04               	movwf	(port1_send3byte@G+1)^(0+1280),c
  3611  00E2E2  0E00               	movlw	0
  3612  00E2E4  6E03               	movwf	port1_send3byte@G^(0+1280),c
  3613  00E2E6  0E00               	movlw	0
  3614  00E2E8  6E06               	movwf	(port1_send3byte@B+1)^(0+1280),c
  3615  00E2EA  6805               	setf	port1_send3byte@B^(0+1280),c
  3616  00E2EC  ECD6  F073         	call	_port1_send3byte	;wreg free
  3617                           
  3618                           ;main.c: 270:             port1_send3byte(0,0,255);
  3619  00E2F0  0E00               	movlw	0
  3620  00E2F2  6E02               	movwf	(port1_send3byte@R+1)^(0+1280),c
  3621  00E2F4  0E00               	movlw	0
  3622  00E2F6  6E01               	movwf	port1_send3byte@R^(0+1280),c
  3623  00E2F8  0E00               	movlw	0
  3624  00E2FA  6E04               	movwf	(port1_send3byte@G+1)^(0+1280),c
  3625  00E2FC  0E00               	movlw	0
  3626  00E2FE  6E03               	movwf	port1_send3byte@G^(0+1280),c
  3627  00E300  0E00               	movlw	0
  3628  00E302  6E06               	movwf	(port1_send3byte@B+1)^(0+1280),c
  3629  00E304  6805               	setf	port1_send3byte@B^(0+1280),c
  3630  00E306  ECD6  F073         	call	_port1_send3byte	;wreg free
  3631                           
  3632                           ;main.c: 271:             port1_send3byte(0,0,255);
  3633  00E30A  0E00               	movlw	0
  3634  00E30C  6E02               	movwf	(port1_send3byte@R+1)^(0+1280),c
  3635  00E30E  0E00               	movlw	0
  3636  00E310  6E01               	movwf	port1_send3byte@R^(0+1280),c
  3637  00E312  0E00               	movlw	0
  3638  00E314  6E04               	movwf	(port1_send3byte@G+1)^(0+1280),c
  3639  00E316  0E00               	movlw	0
  3640  00E318  6E03               	movwf	port1_send3byte@G^(0+1280),c
  3641  00E31A  0E00               	movlw	0
  3642  00E31C  6E06               	movwf	(port1_send3byte@B+1)^(0+1280),c
  3643  00E31E  6805               	setf	port1_send3byte@B^(0+1280),c
  3644  00E320  ECD6  F073         	call	_port1_send3byte	;wreg free
  3645  00E324                     
  3646                           ;main.c: 272:         }
  3647  00E324  4A0E               	infsnz	Blue@i_287^(0+1280),f,c
  3648  00E326  2A0F               	incf	(Blue@i_287+1)^(0+1280),f,c
  3649  00E328  BE0F               	btfsc	(Blue@i_287+1)^(0+1280),7,c
  3650  00E32A  EFA0  F071         	goto	u2591
  3651  00E32E  500F               	movf	(Blue@i_287+1)^(0+1280),w,c
  3652  00E330  E109               	bnz	u2590
  3653  00E332  0E0A               	movlw	10
  3654  00E334  5C0E               	subwf	Blue@i_287^(0+1280),w,c
  3655  00E336  A0D8               	btfss	status,0,c
  3656  00E338  EFA0  F071         	goto	u2591
  3657  00E33C  EFA2  F071         	goto	u2590
  3658  00E340                     u2591:
  3659  00E340  EF47  F071         	goto	l1392
  3660  00E344                     u2590:
  3661  00E344                     
  3662                           ;main.c: 274:         for(int i = 0;i < 10;i++){
  3663  00E344  0E00               	movlw	0
  3664  00E346  6E11               	movwf	(Blue@i_288+1)^(0+1280),c
  3665  00E348  0E00               	movlw	0
  3666  00E34A  6E10               	movwf	Blue@i_288^(0+1280),c
  3667  00E34C                     l1404:
  3668                           
  3669                           ;main.c: 275:             port2_send3byte(0,0,255);
  3670  00E34C  0E00               	movlw	0
  3671  00E34E  6E02               	movwf	(port2_send3byte@R+1)^(0+1280),c
  3672  00E350  0E00               	movlw	0
  3673  00E352  6E01               	movwf	port2_send3byte@R^(0+1280),c
  3674  00E354  0E00               	movlw	0
  3675  00E356  6E04               	movwf	(port2_send3byte@G+1)^(0+1280),c
  3676  00E358  0E00               	movlw	0
  3677  00E35A  6E03               	movwf	port2_send3byte@G^(0+1280),c
  3678  00E35C  0E00               	movlw	0
  3679  00E35E  6E06               	movwf	(port2_send3byte@B+1)^(0+1280),c
  3680  00E360  6805               	setf	port2_send3byte@B^(0+1280),c
  3681  00E362  ECC5  F076         	call	_port2_send3byte	;wreg free
  3682                           
  3683                           ;main.c: 276:             port2_send3byte(0,0,255);
  3684  00E366  0E00               	movlw	0
  3685  00E368  6E02               	movwf	(port2_send3byte@R+1)^(0+1280),c
  3686  00E36A  0E00               	movlw	0
  3687  00E36C  6E01               	movwf	port2_send3byte@R^(0+1280),c
  3688  00E36E  0E00               	movlw	0
  3689  00E370  6E04               	movwf	(port2_send3byte@G+1)^(0+1280),c
  3690  00E372  0E00               	movlw	0
  3691  00E374  6E03               	movwf	port2_send3byte@G^(0+1280),c
  3692  00E376  0E00               	movlw	0
  3693  00E378  6E06               	movwf	(port2_send3byte@B+1)^(0+1280),c
  3694  00E37A  6805               	setf	port2_send3byte@B^(0+1280),c
  3695  00E37C  ECC5  F076         	call	_port2_send3byte	;wreg free
  3696                           
  3697                           ;main.c: 277:             port2_send3byte(0,0,255);
  3698  00E380  0E00               	movlw	0
  3699  00E382  6E02               	movwf	(port2_send3byte@R+1)^(0+1280),c
  3700  00E384  0E00               	movlw	0
  3701  00E386  6E01               	movwf	port2_send3byte@R^(0+1280),c
  3702  00E388  0E00               	movlw	0
  3703  00E38A  6E04               	movwf	(port2_send3byte@G+1)^(0+1280),c
  3704  00E38C  0E00               	movlw	0
  3705  00E38E  6E03               	movwf	port2_send3byte@G^(0+1280),c
  3706  00E390  0E00               	movlw	0
  3707  00E392  6E06               	movwf	(port2_send3byte@B+1)^(0+1280),c
  3708  00E394  6805               	setf	port2_send3byte@B^(0+1280),c
  3709  00E396  ECC5  F076         	call	_port2_send3byte	;wreg free
  3710                           
  3711                           ;main.c: 278:             port2_send3byte(186,255,255);
  3712  00E39A  0E00               	movlw	0
  3713  00E39C  6E02               	movwf	(port2_send3byte@R+1)^(0+1280),c
  3714  00E39E  0EBA               	movlw	186
  3715  00E3A0  6E01               	movwf	port2_send3byte@R^(0+1280),c
  3716  00E3A2  0E00               	movlw	0
  3717  00E3A4  6E04               	movwf	(port2_send3byte@G+1)^(0+1280),c
  3718  00E3A6  6803               	setf	port2_send3byte@G^(0+1280),c
  3719  00E3A8  0E00               	movlw	0
  3720  00E3AA  6E06               	movwf	(port2_send3byte@B+1)^(0+1280),c
  3721  00E3AC  6805               	setf	port2_send3byte@B^(0+1280),c
  3722  00E3AE  ECC5  F076         	call	_port2_send3byte	;wreg free
  3723                           
  3724                           ;main.c: 279:             port2_send3byte(186,255,255);
  3725  00E3B2  0E00               	movlw	0
  3726  00E3B4  6E02               	movwf	(port2_send3byte@R+1)^(0+1280),c
  3727  00E3B6  0EBA               	movlw	186
  3728  00E3B8  6E01               	movwf	port2_send3byte@R^(0+1280),c
  3729  00E3BA  0E00               	movlw	0
  3730  00E3BC  6E04               	movwf	(port2_send3byte@G+1)^(0+1280),c
  3731  00E3BE  6803               	setf	port2_send3byte@G^(0+1280),c
  3732  00E3C0  0E00               	movlw	0
  3733  00E3C2  6E06               	movwf	(port2_send3byte@B+1)^(0+1280),c
  3734  00E3C4  6805               	setf	port2_send3byte@B^(0+1280),c
  3735  00E3C6  ECC5  F076         	call	_port2_send3byte	;wreg free
  3736                           
  3737                           ;main.c: 280:             port2_send3byte(186,255,255);
  3738  00E3CA  0E00               	movlw	0
  3739  00E3CC  6E02               	movwf	(port2_send3byte@R+1)^(0+1280),c
  3740  00E3CE  0EBA               	movlw	186
  3741  00E3D0  6E01               	movwf	port2_send3byte@R^(0+1280),c
  3742  00E3D2  0E00               	movlw	0
  3743  00E3D4  6E04               	movwf	(port2_send3byte@G+1)^(0+1280),c
  3744  00E3D6  6803               	setf	port2_send3byte@G^(0+1280),c
  3745  00E3D8  0E00               	movlw	0
  3746  00E3DA  6E06               	movwf	(port2_send3byte@B+1)^(0+1280),c
  3747  00E3DC  6805               	setf	port2_send3byte@B^(0+1280),c
  3748  00E3DE  ECC5  F076         	call	_port2_send3byte	;wreg free
  3749  00E3E2                     
  3750                           ;main.c: 281:         }
  3751  00E3E2  4A10               	infsnz	Blue@i_288^(0+1280),f,c
  3752  00E3E4  2A11               	incf	(Blue@i_288+1)^(0+1280),f,c
  3753  00E3E6  BE11               	btfsc	(Blue@i_288+1)^(0+1280),7,c
  3754  00E3E8  EFFF  F071         	goto	u2601
  3755  00E3EC  5011               	movf	(Blue@i_288+1)^(0+1280),w,c
  3756  00E3EE  E109               	bnz	u2600
  3757  00E3F0  0E0A               	movlw	10
  3758  00E3F2  5C10               	subwf	Blue@i_288^(0+1280),w,c
  3759  00E3F4  A0D8               	btfss	status,0,c
  3760  00E3F6  EFFF  F071         	goto	u2601
  3761  00E3FA  EF01  F072         	goto	u2600
  3762  00E3FE                     u2601:
  3763  00E3FE  EFA6  F071         	goto	l1404
  3764  00E402                     u2600:
  3765  00E402                     
  3766                           ;main.c: 283:         _delay((unsigned long)((150)*(40000000/4000.0)));
  3767  00E402  0E08               	movlw	8
  3768  00E404  6E09               	movwf	(??_Blue+1)^(0+1280),c
  3769  00E406  0E9D               	movlw	157
  3770  00E408  6E08               	movwf	??_Blue^(0+1280),c
  3771  00E40A  0E06               	movlw	6
  3772  00E40C                     u2987:
  3773  00E40C  2EE8               	decfsz	wreg,f,c
  3774  00E40E  D7FE               	bra	u2987
  3775  00E410  2E08               	decfsz	??_Blue^(0+1280),f,c
  3776  00E412  D7FC               	bra	u2987
  3777  00E414  2E09               	decfsz	(??_Blue+1)^(0+1280),f,c
  3778  00E416  D7FA               	bra	u2987
  3779  00E418  EF48  F070         	goto	l169
  3780  00E41C                     l182:
  3781  00E41C  0012               	return		;funcret
  3782  00E41E                     __end_of_Blue:
  3783                           	callstack 0
  3784                           
  3785 ;; *************** function _port2_send3byte *****************
  3786 ;; Defined at:
  3787 ;;		line 161 in file "main.c"
  3788 ;; Parameters:    Size  Location     Type
  3789 ;;  R               2    0[COMRAM] int 
  3790 ;;  G               2    2[COMRAM] int 
  3791 ;;  B               2    4[COMRAM] int 
  3792 ;; Auto vars:     Size  Location     Type
  3793 ;;		None
  3794 ;; Return value:  Size  Location     Type
  3795 ;;                  2    0[COMRAM] int 
  3796 ;; Registers used:
  3797 ;;		wreg, fsr2l, fsr2h, status,2, status,0, pcl, pclath, pclatu, tosl, prodl, prodh, cstack
  3798 ;; Tracked objects:
  3799 ;;		On entry : 0/0
  3800 ;;		On exit  : 0/0
  3801 ;;		Unchanged: 0/0
  3802 ;; Data sizes:     COMRAM   BANK5   BANK6   BANK7   BANK8   BANK9  BANK10  BANK11  BANK12  BANK13  BANK14  BANK15  BANK1
      +6  BANK17  BANK18  BANK19  BANK20  BANK21  BANK22  BANK23  BANK24  BANK25  BANK26  BANK27  BANK28  BANK29  BANK30  BANK3
      +1  BANK32  BANK33  BANK34  BANK35  BANK36
  3803 ;;      Params:         6       0       0       0       0       0       0       0       0       0       0       0       
      +0       0       0       0       0       0       0       0       0       0       0       0       0       0       0       
      +0       0       0       0       0       0
  3804 ;;      Locals:         0       0       0       0       0       0       0       0       0       0       0       0       
      +0       0       0       0       0       0       0       0       0       0       0       0       0       0       0       
      +0       0       0       0       0       0
  3805 ;;      Temps:          1       0       0       0       0       0       0       0       0       0       0       0       
      +0       0       0       0       0       0       0       0       0       0       0       0       0       0       0       
      +0       0       0       0       0       0
  3806 ;;      Totals:         7       0       0       0       0       0       0       0       0       0       0       0       
      +0       0       0       0       0       0       0       0       0       0       0       0       0       0       0       
      +0       0       0       0       0       0
  3807 ;;Total ram usage:        7 bytes
  3808 ;; Hardware stack levels used: 1
  3809 ;; Hardware stack levels required when called: 1
  3810 ;; This function calls:
  3811 ;;		_port2_one
  3812 ;;		_port2_zero
  3813 ;; This function is called by:
  3814 ;;		_Red
  3815 ;;		_Blue
  3816 ;;		_Gaming
  3817 ;; This function uses a non-reentrant model
  3818 ;;
  3819                           
  3820                           	psect	text8
  3821  00ED8A                     __ptext8:
  3822                           	callstack 0
  3823  00ED8A                     _port2_send3byte:
  3824                           	callstack 124
  3825  00ED8A                     
  3826                           ;main.c: 162:     g.chr = G;r.chr = R;b.chr = B;
  3827  00ED8A  C503  F52F         	movff	port2_send3byte@G,_g
  3828  00ED8E  C501  F530         	movff	port2_send3byte@R,_r
  3829  00ED92  C505  F52E         	movff	port2_send3byte@B,_b
  3830  00ED96                     
  3831                           ;main.c: 164:     port2_send1bit[g.b.b1]();
  3832  00ED96  B02F               	btfsc	_g^(0+1280),0,c
  3833  00ED98  EFD0  F076         	goto	u1931
  3834  00ED9C  EFD4  F076         	goto	u1930
  3835  00EDA0                     u1931:
  3836  00EDA0  6A07               	clrf	??_port2_send3byte^(0+1280),c
  3837  00EDA2  2A07               	incf	??_port2_send3byte^(0+1280),f,c
  3838  00EDA4  EFD5  F076         	goto	u1938
  3839  00EDA8                     u1930:
  3840  00EDA8  6A07               	clrf	??_port2_send3byte^(0+1280),c
  3841  00EDAA                     u1938:
  3842  00EDAA  5007               	movf	??_port2_send3byte^(0+1280),w,c
  3843  00EDAC  0D02               	mullw	2
  3844  00EDAE  0E31               	movlw	low _port2_send1bit
  3845  00EDB0  24F3               	addwf	243,w,c
  3846  00EDB2  6ED9               	movwf	fsr2l,c
  3847  00EDB4  0E05               	movlw	high _port2_send1bit
  3848  00EDB6  20F4               	addwfc	prodh,w,c
  3849  00EDB8  6EDA               	movwf	fsr2h,c
  3850  00EDBA  D802               	call	u1948
  3851  00EDBC  EFEA  F076         	goto	u1949
  3852  00EDC0                     u1948:
  3853  00EDC0  0005               	push	
  3854  00EDC2  6EFA               	movwf	pclath,c
  3855  00EDC4  50DE               	movf	postinc2,w,c
  3856  00EDC6  6EFD               	movwf	tosl,c
  3857  00EDC8  50DE               	movf	postinc2,w,c
  3858  00EDCA  6EFE               	movwf	tosh,c
  3859  00EDCC  50F8               	movf	tblptru,w,c
  3860  00EDCE  6EFF               	movwf	tosu,c
  3861  00EDD0  50FA               	movf	pclath,w,c
  3862  00EDD2  0012               	return		;indir
  3863  00EDD4                     u1949:
  3864                           
  3865                           ;main.c: 165:     port2_send1bit[g.b.b2]();
  3866  00EDD4  B22F               	btfsc	_g^(0+1280),1,c
  3867  00EDD6  EFEF  F076         	goto	u1951
  3868  00EDDA  EFF3  F076         	goto	u1950
  3869  00EDDE                     u1951:
  3870  00EDDE  6A07               	clrf	??_port2_send3byte^(0+1280),c
  3871  00EDE0  2A07               	incf	??_port2_send3byte^(0+1280),f,c
  3872  00EDE2  EFF4  F076         	goto	u1958
  3873  00EDE6                     u1950:
  3874  00EDE6  6A07               	clrf	??_port2_send3byte^(0+1280),c
  3875  00EDE8                     u1958:
  3876  00EDE8  5007               	movf	??_port2_send3byte^(0+1280),w,c
  3877  00EDEA  0D02               	mullw	2
  3878  00EDEC  0E31               	movlw	low _port2_send1bit
  3879  00EDEE  24F3               	addwf	243,w,c
  3880  00EDF0  6ED9               	movwf	fsr2l,c
  3881  00EDF2  0E05               	movlw	high _port2_send1bit
  3882  00EDF4  20F4               	addwfc	prodh,w,c
  3883  00EDF6  6EDA               	movwf	fsr2h,c
  3884  00EDF8  D802               	call	u1968
  3885  00EDFA  EF09  F077         	goto	u1969
  3886  00EDFE                     u1968:
  3887  00EDFE  0005               	push	
  3888  00EE00  6EFA               	movwf	pclath,c
  3889  00EE02  50DE               	movf	postinc2,w,c
  3890  00EE04  6EFD               	movwf	tosl,c
  3891  00EE06  50DE               	movf	postinc2,w,c
  3892  00EE08  6EFE               	movwf	tosh,c
  3893  00EE0A  50F8               	movf	tblptru,w,c
  3894  00EE0C  6EFF               	movwf	tosu,c
  3895  00EE0E  50FA               	movf	pclath,w,c
  3896  00EE10  0012               	return		;indir
  3897  00EE12                     u1969:
  3898                           
  3899                           ;main.c: 166:     port2_send1bit[g.b.b3]();
  3900  00EE12  B42F               	btfsc	_g^(0+1280),2,c
  3901  00EE14  EF0E  F077         	goto	u1971
  3902  00EE18  EF12  F077         	goto	u1970
  3903  00EE1C                     u1971:
  3904  00EE1C  6A07               	clrf	??_port2_send3byte^(0+1280),c
  3905  00EE1E  2A07               	incf	??_port2_send3byte^(0+1280),f,c
  3906  00EE20  EF13  F077         	goto	u1978
  3907  00EE24                     u1970:
  3908  00EE24  6A07               	clrf	??_port2_send3byte^(0+1280),c
  3909  00EE26                     u1978:
  3910  00EE26  5007               	movf	??_port2_send3byte^(0+1280),w,c
  3911  00EE28  0D02               	mullw	2
  3912  00EE2A  0E31               	movlw	low _port2_send1bit
  3913  00EE2C  24F3               	addwf	243,w,c
  3914  00EE2E  6ED9               	movwf	fsr2l,c
  3915  00EE30  0E05               	movlw	high _port2_send1bit
  3916  00EE32  20F4               	addwfc	prodh,w,c
  3917  00EE34  6EDA               	movwf	fsr2h,c
  3918  00EE36  D802               	call	u1988
  3919  00EE38  EF28  F077         	goto	u1989
  3920  00EE3C                     u1988:
  3921  00EE3C  0005               	push	
  3922  00EE3E  6EFA               	movwf	pclath,c
  3923  00EE40  50DE               	movf	postinc2,w,c
  3924  00EE42  6EFD               	movwf	tosl,c
  3925  00EE44  50DE               	movf	postinc2,w,c
  3926  00EE46  6EFE               	movwf	tosh,c
  3927  00EE48  50F8               	movf	tblptru,w,c
  3928  00EE4A  6EFF               	movwf	tosu,c
  3929  00EE4C  50FA               	movf	pclath,w,c
  3930  00EE4E  0012               	return		;indir
  3931  00EE50                     u1989:
  3932                           
  3933                           ;main.c: 167:     port2_send1bit[g.b.b4]();
  3934  00EE50  B62F               	btfsc	_g^(0+1280),3,c
  3935  00EE52  EF2D  F077         	goto	u1991
  3936  00EE56  EF31  F077         	goto	u1990
  3937  00EE5A                     u1991:
  3938  00EE5A  6A07               	clrf	??_port2_send3byte^(0+1280),c
  3939  00EE5C  2A07               	incf	??_port2_send3byte^(0+1280),f,c
  3940  00EE5E  EF32  F077         	goto	u1998
  3941  00EE62                     u1990:
  3942  00EE62  6A07               	clrf	??_port2_send3byte^(0+1280),c
  3943  00EE64                     u1998:
  3944  00EE64  5007               	movf	??_port2_send3byte^(0+1280),w,c
  3945  00EE66  0D02               	mullw	2
  3946  00EE68  0E31               	movlw	low _port2_send1bit
  3947  00EE6A  24F3               	addwf	243,w,c
  3948  00EE6C  6ED9               	movwf	fsr2l,c
  3949  00EE6E  0E05               	movlw	high _port2_send1bit
  3950  00EE70  20F4               	addwfc	prodh,w,c
  3951  00EE72  6EDA               	movwf	fsr2h,c
  3952  00EE74  D802               	call	u2008
  3953  00EE76  EF47  F077         	goto	u2009
  3954  00EE7A                     u2008:
  3955  00EE7A  0005               	push	
  3956  00EE7C  6EFA               	movwf	pclath,c
  3957  00EE7E  50DE               	movf	postinc2,w,c
  3958  00EE80  6EFD               	movwf	tosl,c
  3959  00EE82  50DE               	movf	postinc2,w,c
  3960  00EE84  6EFE               	movwf	tosh,c
  3961  00EE86  50F8               	movf	tblptru,w,c
  3962  00EE88  6EFF               	movwf	tosu,c
  3963  00EE8A  50FA               	movf	pclath,w,c
  3964  00EE8C  0012               	return		;indir
  3965  00EE8E                     u2009:
  3966                           
  3967                           ;main.c: 168:     port2_send1bit[g.b.b5]();
  3968  00EE8E  B82F               	btfsc	_g^(0+1280),4,c
  3969  00EE90  EF4C  F077         	goto	u2011
  3970  00EE94  EF50  F077         	goto	u2010
  3971  00EE98                     u2011:
  3972  00EE98  6A07               	clrf	??_port2_send3byte^(0+1280),c
  3973  00EE9A  2A07               	incf	??_port2_send3byte^(0+1280),f,c
  3974  00EE9C  EF51  F077         	goto	u2018
  3975  00EEA0                     u2010:
  3976  00EEA0  6A07               	clrf	??_port2_send3byte^(0+1280),c
  3977  00EEA2                     u2018:
  3978  00EEA2  5007               	movf	??_port2_send3byte^(0+1280),w,c
  3979  00EEA4  0D02               	mullw	2
  3980  00EEA6  0E31               	movlw	low _port2_send1bit
  3981  00EEA8  24F3               	addwf	243,w,c
  3982  00EEAA  6ED9               	movwf	fsr2l,c
  3983  00EEAC  0E05               	movlw	high _port2_send1bit
  3984  00EEAE  20F4               	addwfc	prodh,w,c
  3985  00EEB0  6EDA               	movwf	fsr2h,c
  3986  00EEB2  D802               	call	u2028
  3987  00EEB4  EF66  F077         	goto	u2029
  3988  00EEB8                     u2028:
  3989  00EEB8  0005               	push	
  3990  00EEBA  6EFA               	movwf	pclath,c
  3991  00EEBC  50DE               	movf	postinc2,w,c
  3992  00EEBE  6EFD               	movwf	tosl,c
  3993  00EEC0  50DE               	movf	postinc2,w,c
  3994  00EEC2  6EFE               	movwf	tosh,c
  3995  00EEC4  50F8               	movf	tblptru,w,c
  3996  00EEC6  6EFF               	movwf	tosu,c
  3997  00EEC8  50FA               	movf	pclath,w,c
  3998  00EECA  0012               	return		;indir
  3999  00EECC                     u2029:
  4000                           
  4001                           ;main.c: 169:     port2_send1bit[g.b.b6]();
  4002  00EECC  BA2F               	btfsc	_g^(0+1280),5,c
  4003  00EECE  EF6B  F077         	goto	u2031
  4004  00EED2  EF6F  F077         	goto	u2030
  4005  00EED6                     u2031:
  4006  00EED6  6A07               	clrf	??_port2_send3byte^(0+1280),c
  4007  00EED8  2A07               	incf	??_port2_send3byte^(0+1280),f,c
  4008  00EEDA  EF70  F077         	goto	u2038
  4009  00EEDE                     u2030:
  4010  00EEDE  6A07               	clrf	??_port2_send3byte^(0+1280),c
  4011  00EEE0                     u2038:
  4012  00EEE0  5007               	movf	??_port2_send3byte^(0+1280),w,c
  4013  00EEE2  0D02               	mullw	2
  4014  00EEE4  0E31               	movlw	low _port2_send1bit
  4015  00EEE6  24F3               	addwf	243,w,c
  4016  00EEE8  6ED9               	movwf	fsr2l,c
  4017  00EEEA  0E05               	movlw	high _port2_send1bit
  4018  00EEEC  20F4               	addwfc	prodh,w,c
  4019  00EEEE  6EDA               	movwf	fsr2h,c
  4020  00EEF0  D802               	call	u2048
  4021  00EEF2  EF85  F077         	goto	u2049
  4022  00EEF6                     u2048:
  4023  00EEF6  0005               	push	
  4024  00EEF8  6EFA               	movwf	pclath,c
  4025  00EEFA  50DE               	movf	postinc2,w,c
  4026  00EEFC  6EFD               	movwf	tosl,c
  4027  00EEFE  50DE               	movf	postinc2,w,c
  4028  00EF00  6EFE               	movwf	tosh,c
  4029  00EF02  50F8               	movf	tblptru,w,c
  4030  00EF04  6EFF               	movwf	tosu,c
  4031  00EF06  50FA               	movf	pclath,w,c
  4032  00EF08  0012               	return		;indir
  4033  00EF0A                     u2049:
  4034                           
  4035                           ;main.c: 170:     port2_send1bit[g.b.b7]();
  4036  00EF0A  BC2F               	btfsc	_g^(0+1280),6,c
  4037  00EF0C  EF8A  F077         	goto	u2051
  4038  00EF10  EF8E  F077         	goto	u2050
  4039  00EF14                     u2051:
  4040  00EF14  6A07               	clrf	??_port2_send3byte^(0+1280),c
  4041  00EF16  2A07               	incf	??_port2_send3byte^(0+1280),f,c
  4042  00EF18  EF8F  F077         	goto	u2058
  4043  00EF1C                     u2050:
  4044  00EF1C  6A07               	clrf	??_port2_send3byte^(0+1280),c
  4045  00EF1E                     u2058:
  4046  00EF1E  5007               	movf	??_port2_send3byte^(0+1280),w,c
  4047  00EF20  0D02               	mullw	2
  4048  00EF22  0E31               	movlw	low _port2_send1bit
  4049  00EF24  24F3               	addwf	243,w,c
  4050  00EF26  6ED9               	movwf	fsr2l,c
  4051  00EF28  0E05               	movlw	high _port2_send1bit
  4052  00EF2A  20F4               	addwfc	prodh,w,c
  4053  00EF2C  6EDA               	movwf	fsr2h,c
  4054  00EF2E  D802               	call	u2068
  4055  00EF30  EFA4  F077         	goto	u2069
  4056  00EF34                     u2068:
  4057  00EF34  0005               	push	
  4058  00EF36  6EFA               	movwf	pclath,c
  4059  00EF38  50DE               	movf	postinc2,w,c
  4060  00EF3A  6EFD               	movwf	tosl,c
  4061  00EF3C  50DE               	movf	postinc2,w,c
  4062  00EF3E  6EFE               	movwf	tosh,c
  4063  00EF40  50F8               	movf	tblptru,w,c
  4064  00EF42  6EFF               	movwf	tosu,c
  4065  00EF44  50FA               	movf	pclath,w,c
  4066  00EF46  0012               	return		;indir
  4067  00EF48                     u2069:
  4068                           
  4069                           ;main.c: 171:     port2_send1bit[g.b.b8]();
  4070  00EF48  BE2F               	btfsc	_g^(0+1280),7,c
  4071  00EF4A  EFA9  F077         	goto	u2071
  4072  00EF4E  EFAD  F077         	goto	u2070
  4073  00EF52                     u2071:
  4074  00EF52  6A07               	clrf	??_port2_send3byte^(0+1280),c
  4075  00EF54  2A07               	incf	??_port2_send3byte^(0+1280),f,c
  4076  00EF56  EFAE  F077         	goto	u2078
  4077  00EF5A                     u2070:
  4078  00EF5A  6A07               	clrf	??_port2_send3byte^(0+1280),c
  4079  00EF5C                     u2078:
  4080  00EF5C  5007               	movf	??_port2_send3byte^(0+1280),w,c
  4081  00EF5E  0D02               	mullw	2
  4082  00EF60  0E31               	movlw	low _port2_send1bit
  4083  00EF62  24F3               	addwf	243,w,c
  4084  00EF64  6ED9               	movwf	fsr2l,c
  4085  00EF66  0E05               	movlw	high _port2_send1bit
  4086  00EF68  20F4               	addwfc	prodh,w,c
  4087  00EF6A  6EDA               	movwf	fsr2h,c
  4088  00EF6C  D802               	call	u2088
  4089  00EF6E  EFC3  F077         	goto	u2089
  4090  00EF72                     u2088:
  4091  00EF72  0005               	push	
  4092  00EF74  6EFA               	movwf	pclath,c
  4093  00EF76  50DE               	movf	postinc2,w,c
  4094  00EF78  6EFD               	movwf	tosl,c
  4095  00EF7A  50DE               	movf	postinc2,w,c
  4096  00EF7C  6EFE               	movwf	tosh,c
  4097  00EF7E  50F8               	movf	tblptru,w,c
  4098  00EF80  6EFF               	movwf	tosu,c
  4099  00EF82  50FA               	movf	pclath,w,c
  4100  00EF84  0012               	return		;indir
  4101  00EF86                     u2089:
  4102                           
  4103                           ;main.c: 172:     port2_send1bit[r.b.b1]();
  4104  00EF86  B030               	btfsc	_r^(0+1280),0,c
  4105  00EF88  EFC8  F077         	goto	u2091
  4106  00EF8C  EFCC  F077         	goto	u2090
  4107  00EF90                     u2091:
  4108  00EF90  6A07               	clrf	??_port2_send3byte^(0+1280),c
  4109  00EF92  2A07               	incf	??_port2_send3byte^(0+1280),f,c
  4110  00EF94  EFCD  F077         	goto	u2098
  4111  00EF98                     u2090:
  4112  00EF98  6A07               	clrf	??_port2_send3byte^(0+1280),c
  4113  00EF9A                     u2098:
  4114  00EF9A  5007               	movf	??_port2_send3byte^(0+1280),w,c
  4115  00EF9C  0D02               	mullw	2
  4116  00EF9E  0E31               	movlw	low _port2_send1bit
  4117  00EFA0  24F3               	addwf	243,w,c
  4118  00EFA2  6ED9               	movwf	fsr2l,c
  4119  00EFA4  0E05               	movlw	high _port2_send1bit
  4120  00EFA6  20F4               	addwfc	prodh,w,c
  4121  00EFA8  6EDA               	movwf	fsr2h,c
  4122  00EFAA  D802               	call	u2108
  4123  00EFAC  EFE2  F077         	goto	u2109
  4124  00EFB0                     u2108:
  4125  00EFB0  0005               	push	
  4126  00EFB2  6EFA               	movwf	pclath,c
  4127  00EFB4  50DE               	movf	postinc2,w,c
  4128  00EFB6  6EFD               	movwf	tosl,c
  4129  00EFB8  50DE               	movf	postinc2,w,c
  4130  00EFBA  6EFE               	movwf	tosh,c
  4131  00EFBC  50F8               	movf	tblptru,w,c
  4132  00EFBE  6EFF               	movwf	tosu,c
  4133  00EFC0  50FA               	movf	pclath,w,c
  4134  00EFC2  0012               	return		;indir
  4135  00EFC4                     u2109:
  4136                           
  4137                           ;main.c: 173:     port2_send1bit[r.b.b2]();
  4138  00EFC4  B230               	btfsc	_r^(0+1280),1,c
  4139  00EFC6  EFE7  F077         	goto	u2111
  4140  00EFCA  EFEB  F077         	goto	u2110
  4141  00EFCE                     u2111:
  4142  00EFCE  6A07               	clrf	??_port2_send3byte^(0+1280),c
  4143  00EFD0  2A07               	incf	??_port2_send3byte^(0+1280),f,c
  4144  00EFD2  EFEC  F077         	goto	u2118
  4145  00EFD6                     u2110:
  4146  00EFD6  6A07               	clrf	??_port2_send3byte^(0+1280),c
  4147  00EFD8                     u2118:
  4148  00EFD8  5007               	movf	??_port2_send3byte^(0+1280),w,c
  4149  00EFDA  0D02               	mullw	2
  4150  00EFDC  0E31               	movlw	low _port2_send1bit
  4151  00EFDE  24F3               	addwf	243,w,c
  4152  00EFE0  6ED9               	movwf	fsr2l,c
  4153  00EFE2  0E05               	movlw	high _port2_send1bit
  4154  00EFE4  20F4               	addwfc	prodh,w,c
  4155  00EFE6  6EDA               	movwf	fsr2h,c
  4156  00EFE8  D802               	call	u2128
  4157  00EFEA  EF01  F078         	goto	u2129
  4158  00EFEE                     u2128:
  4159  00EFEE  0005               	push	
  4160  00EFF0  6EFA               	movwf	pclath,c
  4161  00EFF2  50DE               	movf	postinc2,w,c
  4162  00EFF4  6EFD               	movwf	tosl,c
  4163  00EFF6  50DE               	movf	postinc2,w,c
  4164  00EFF8  6EFE               	movwf	tosh,c
  4165  00EFFA  50F8               	movf	tblptru,w,c
  4166  00EFFC  6EFF               	movwf	tosu,c
  4167  00EFFE  50FA               	movf	pclath,w,c
  4168  00F000  0012               	return		;indir
  4169  00F002                     u2129:
  4170                           
  4171                           ;main.c: 174:     port2_send1bit[r.b.b3]();
  4172  00F002  B430               	btfsc	_r^(0+1280),2,c
  4173  00F004  EF06  F078         	goto	u2131
  4174  00F008  EF0A  F078         	goto	u2130
  4175  00F00C                     u2131:
  4176  00F00C  6A07               	clrf	??_port2_send3byte^(0+1280),c
  4177  00F00E  2A07               	incf	??_port2_send3byte^(0+1280),f,c
  4178  00F010  EF0B  F078         	goto	u2138
  4179  00F014                     u2130:
  4180  00F014  6A07               	clrf	??_port2_send3byte^(0+1280),c
  4181  00F016                     u2138:
  4182  00F016  5007               	movf	??_port2_send3byte^(0+1280),w,c
  4183  00F018  0D02               	mullw	2
  4184  00F01A  0E31               	movlw	low _port2_send1bit
  4185  00F01C  24F3               	addwf	243,w,c
  4186  00F01E  6ED9               	movwf	fsr2l,c
  4187  00F020  0E05               	movlw	high _port2_send1bit
  4188  00F022  20F4               	addwfc	prodh,w,c
  4189  00F024  6EDA               	movwf	fsr2h,c
  4190  00F026  D802               	call	u2148
  4191  00F028  EF20  F078         	goto	u2149
  4192  00F02C                     u2148:
  4193  00F02C  0005               	push	
  4194  00F02E  6EFA               	movwf	pclath,c
  4195  00F030  50DE               	movf	postinc2,w,c
  4196  00F032  6EFD               	movwf	tosl,c
  4197  00F034  50DE               	movf	postinc2,w,c
  4198  00F036  6EFE               	movwf	tosh,c
  4199  00F038  50F8               	movf	tblptru,w,c
  4200  00F03A  6EFF               	movwf	tosu,c
  4201  00F03C  50FA               	movf	pclath,w,c
  4202  00F03E  0012               	return		;indir
  4203  00F040                     u2149:
  4204                           
  4205                           ;main.c: 175:     port2_send1bit[r.b.b4]();
  4206  00F040  B630               	btfsc	_r^(0+1280),3,c
  4207  00F042  EF25  F078         	goto	u2151
  4208  00F046  EF29  F078         	goto	u2150
  4209  00F04A                     u2151:
  4210  00F04A  6A07               	clrf	??_port2_send3byte^(0+1280),c
  4211  00F04C  2A07               	incf	??_port2_send3byte^(0+1280),f,c
  4212  00F04E  EF2A  F078         	goto	u2158
  4213  00F052                     u2150:
  4214  00F052  6A07               	clrf	??_port2_send3byte^(0+1280),c
  4215  00F054                     u2158:
  4216  00F054  5007               	movf	??_port2_send3byte^(0+1280),w,c
  4217  00F056  0D02               	mullw	2
  4218  00F058  0E31               	movlw	low _port2_send1bit
  4219  00F05A  24F3               	addwf	243,w,c
  4220  00F05C  6ED9               	movwf	fsr2l,c
  4221  00F05E  0E05               	movlw	high _port2_send1bit
  4222  00F060  20F4               	addwfc	prodh,w,c
  4223  00F062  6EDA               	movwf	fsr2h,c
  4224  00F064  D802               	call	u2168
  4225  00F066  EF3F  F078         	goto	u2169
  4226  00F06A                     u2168:
  4227  00F06A  0005               	push	
  4228  00F06C  6EFA               	movwf	pclath,c
  4229  00F06E  50DE               	movf	postinc2,w,c
  4230  00F070  6EFD               	movwf	tosl,c
  4231  00F072  50DE               	movf	postinc2,w,c
  4232  00F074  6EFE               	movwf	tosh,c
  4233  00F076  50F8               	movf	tblptru,w,c
  4234  00F078  6EFF               	movwf	tosu,c
  4235  00F07A  50FA               	movf	pclath,w,c
  4236  00F07C  0012               	return		;indir
  4237  00F07E                     u2169:
  4238                           
  4239                           ;main.c: 176:     port2_send1bit[r.b.b5]();
  4240  00F07E  B830               	btfsc	_r^(0+1280),4,c
  4241  00F080  EF44  F078         	goto	u2171
  4242  00F084  EF48  F078         	goto	u2170
  4243  00F088                     u2171:
  4244  00F088  6A07               	clrf	??_port2_send3byte^(0+1280),c
  4245  00F08A  2A07               	incf	??_port2_send3byte^(0+1280),f,c
  4246  00F08C  EF49  F078         	goto	u2178
  4247  00F090                     u2170:
  4248  00F090  6A07               	clrf	??_port2_send3byte^(0+1280),c
  4249  00F092                     u2178:
  4250  00F092  5007               	movf	??_port2_send3byte^(0+1280),w,c
  4251  00F094  0D02               	mullw	2
  4252  00F096  0E31               	movlw	low _port2_send1bit
  4253  00F098  24F3               	addwf	243,w,c
  4254  00F09A  6ED9               	movwf	fsr2l,c
  4255  00F09C  0E05               	movlw	high _port2_send1bit
  4256  00F09E  20F4               	addwfc	prodh,w,c
  4257  00F0A0  6EDA               	movwf	fsr2h,c
  4258  00F0A2  D802               	call	u2188
  4259  00F0A4  EF5E  F078         	goto	u2189
  4260  00F0A8                     u2188:
  4261  00F0A8  0005               	push	
  4262  00F0AA  6EFA               	movwf	pclath,c
  4263  00F0AC  50DE               	movf	postinc2,w,c
  4264  00F0AE  6EFD               	movwf	tosl,c
  4265  00F0B0  50DE               	movf	postinc2,w,c
  4266  00F0B2  6EFE               	movwf	tosh,c
  4267  00F0B4  50F8               	movf	tblptru,w,c
  4268  00F0B6  6EFF               	movwf	tosu,c
  4269  00F0B8  50FA               	movf	pclath,w,c
  4270  00F0BA  0012               	return		;indir
  4271  00F0BC                     u2189:
  4272                           
  4273                           ;main.c: 177:     port2_send1bit[r.b.b6]();
  4274  00F0BC  BA30               	btfsc	_r^(0+1280),5,c
  4275  00F0BE  EF63  F078         	goto	u2191
  4276  00F0C2  EF67  F078         	goto	u2190
  4277  00F0C6                     u2191:
  4278  00F0C6  6A07               	clrf	??_port2_send3byte^(0+1280),c
  4279  00F0C8  2A07               	incf	??_port2_send3byte^(0+1280),f,c
  4280  00F0CA  EF68  F078         	goto	u2198
  4281  00F0CE                     u2190:
  4282  00F0CE  6A07               	clrf	??_port2_send3byte^(0+1280),c
  4283  00F0D0                     u2198:
  4284  00F0D0  5007               	movf	??_port2_send3byte^(0+1280),w,c
  4285  00F0D2  0D02               	mullw	2
  4286  00F0D4  0E31               	movlw	low _port2_send1bit
  4287  00F0D6  24F3               	addwf	243,w,c
  4288  00F0D8  6ED9               	movwf	fsr2l,c
  4289  00F0DA  0E05               	movlw	high _port2_send1bit
  4290  00F0DC  20F4               	addwfc	prodh,w,c
  4291  00F0DE  6EDA               	movwf	fsr2h,c
  4292  00F0E0  D802               	call	u2208
  4293  00F0E2  EF7D  F078         	goto	u2209
  4294  00F0E6                     u2208:
  4295  00F0E6  0005               	push	
  4296  00F0E8  6EFA               	movwf	pclath,c
  4297  00F0EA  50DE               	movf	postinc2,w,c
  4298  00F0EC  6EFD               	movwf	tosl,c
  4299  00F0EE  50DE               	movf	postinc2,w,c
  4300  00F0F0  6EFE               	movwf	tosh,c
  4301  00F0F2  50F8               	movf	tblptru,w,c
  4302  00F0F4  6EFF               	movwf	tosu,c
  4303  00F0F6  50FA               	movf	pclath,w,c
  4304  00F0F8  0012               	return		;indir
  4305  00F0FA                     u2209:
  4306                           
  4307                           ;main.c: 178:     port2_send1bit[r.b.b7]();
  4308  00F0FA  BC30               	btfsc	_r^(0+1280),6,c
  4309  00F0FC  EF82  F078         	goto	u2211
  4310  00F100  EF86  F078         	goto	u2210
  4311  00F104                     u2211:
  4312  00F104  6A07               	clrf	??_port2_send3byte^(0+1280),c
  4313  00F106  2A07               	incf	??_port2_send3byte^(0+1280),f,c
  4314  00F108  EF87  F078         	goto	u2218
  4315  00F10C                     u2210:
  4316  00F10C  6A07               	clrf	??_port2_send3byte^(0+1280),c
  4317  00F10E                     u2218:
  4318  00F10E  5007               	movf	??_port2_send3byte^(0+1280),w,c
  4319  00F110  0D02               	mullw	2
  4320  00F112  0E31               	movlw	low _port2_send1bit
  4321  00F114  24F3               	addwf	243,w,c
  4322  00F116  6ED9               	movwf	fsr2l,c
  4323  00F118  0E05               	movlw	high _port2_send1bit
  4324  00F11A  20F4               	addwfc	prodh,w,c
  4325  00F11C  6EDA               	movwf	fsr2h,c
  4326  00F11E  D802               	call	u2228
  4327  00F120  EF9C  F078         	goto	u2229
  4328  00F124                     u2228:
  4329  00F124  0005               	push	
  4330  00F126  6EFA               	movwf	pclath,c
  4331  00F128  50DE               	movf	postinc2,w,c
  4332  00F12A  6EFD               	movwf	tosl,c
  4333  00F12C  50DE               	movf	postinc2,w,c
  4334  00F12E  6EFE               	movwf	tosh,c
  4335  00F130  50F8               	movf	tblptru,w,c
  4336  00F132  6EFF               	movwf	tosu,c
  4337  00F134  50FA               	movf	pclath,w,c
  4338  00F136  0012               	return		;indir
  4339  00F138                     u2229:
  4340                           
  4341                           ;main.c: 179:     port2_send1bit[r.b.b8]();
  4342  00F138  BE30               	btfsc	_r^(0+1280),7,c
  4343  00F13A  EFA1  F078         	goto	u2231
  4344  00F13E  EFA5  F078         	goto	u2230
  4345  00F142                     u2231:
  4346  00F142  6A07               	clrf	??_port2_send3byte^(0+1280),c
  4347  00F144  2A07               	incf	??_port2_send3byte^(0+1280),f,c
  4348  00F146  EFA6  F078         	goto	u2238
  4349  00F14A                     u2230:
  4350  00F14A  6A07               	clrf	??_port2_send3byte^(0+1280),c
  4351  00F14C                     u2238:
  4352  00F14C  5007               	movf	??_port2_send3byte^(0+1280),w,c
  4353  00F14E  0D02               	mullw	2
  4354  00F150  0E31               	movlw	low _port2_send1bit
  4355  00F152  24F3               	addwf	243,w,c
  4356  00F154  6ED9               	movwf	fsr2l,c
  4357  00F156  0E05               	movlw	high _port2_send1bit
  4358  00F158  20F4               	addwfc	prodh,w,c
  4359  00F15A  6EDA               	movwf	fsr2h,c
  4360  00F15C  D802               	call	u2248
  4361  00F15E  EFBB  F078         	goto	u2249
  4362  00F162                     u2248:
  4363  00F162  0005               	push	
  4364  00F164  6EFA               	movwf	pclath,c
  4365  00F166  50DE               	movf	postinc2,w,c
  4366  00F168  6EFD               	movwf	tosl,c
  4367  00F16A  50DE               	movf	postinc2,w,c
  4368  00F16C  6EFE               	movwf	tosh,c
  4369  00F16E  50F8               	movf	tblptru,w,c
  4370  00F170  6EFF               	movwf	tosu,c
  4371  00F172  50FA               	movf	pclath,w,c
  4372  00F174  0012               	return		;indir
  4373  00F176                     u2249:
  4374                           
  4375                           ;main.c: 180:     port2_send1bit[b.b.b1]();
  4376  00F176  B02E               	btfsc	_b^(0+1280),0,c
  4377  00F178  EFC0  F078         	goto	u2251
  4378  00F17C  EFC4  F078         	goto	u2250
  4379  00F180                     u2251:
  4380  00F180  6A07               	clrf	??_port2_send3byte^(0+1280),c
  4381  00F182  2A07               	incf	??_port2_send3byte^(0+1280),f,c
  4382  00F184  EFC5  F078         	goto	u2258
  4383  00F188                     u2250:
  4384  00F188  6A07               	clrf	??_port2_send3byte^(0+1280),c
  4385  00F18A                     u2258:
  4386  00F18A  5007               	movf	??_port2_send3byte^(0+1280),w,c
  4387  00F18C  0D02               	mullw	2
  4388  00F18E  0E31               	movlw	low _port2_send1bit
  4389  00F190  24F3               	addwf	243,w,c
  4390  00F192  6ED9               	movwf	fsr2l,c
  4391  00F194  0E05               	movlw	high _port2_send1bit
  4392  00F196  20F4               	addwfc	prodh,w,c
  4393  00F198  6EDA               	movwf	fsr2h,c
  4394  00F19A  D802               	call	u2268
  4395  00F19C  EFDA  F078         	goto	u2269
  4396  00F1A0                     u2268:
  4397  00F1A0  0005               	push	
  4398  00F1A2  6EFA               	movwf	pclath,c
  4399  00F1A4  50DE               	movf	postinc2,w,c
  4400  00F1A6  6EFD               	movwf	tosl,c
  4401  00F1A8  50DE               	movf	postinc2,w,c
  4402  00F1AA  6EFE               	movwf	tosh,c
  4403  00F1AC  50F8               	movf	tblptru,w,c
  4404  00F1AE  6EFF               	movwf	tosu,c
  4405  00F1B0  50FA               	movf	pclath,w,c
  4406  00F1B2  0012               	return		;indir
  4407  00F1B4                     u2269:
  4408                           
  4409                           ;main.c: 181:     port2_send1bit[b.b.b2]();
  4410  00F1B4  B22E               	btfsc	_b^(0+1280),1,c
  4411  00F1B6  EFDF  F078         	goto	u2271
  4412  00F1BA  EFE3  F078         	goto	u2270
  4413  00F1BE                     u2271:
  4414  00F1BE  6A07               	clrf	??_port2_send3byte^(0+1280),c
  4415  00F1C0  2A07               	incf	??_port2_send3byte^(0+1280),f,c
  4416  00F1C2  EFE4  F078         	goto	u2278
  4417  00F1C6                     u2270:
  4418  00F1C6  6A07               	clrf	??_port2_send3byte^(0+1280),c
  4419  00F1C8                     u2278:
  4420  00F1C8  5007               	movf	??_port2_send3byte^(0+1280),w,c
  4421  00F1CA  0D02               	mullw	2
  4422  00F1CC  0E31               	movlw	low _port2_send1bit
  4423  00F1CE  24F3               	addwf	243,w,c
  4424  00F1D0  6ED9               	movwf	fsr2l,c
  4425  00F1D2  0E05               	movlw	high _port2_send1bit
  4426  00F1D4  20F4               	addwfc	prodh,w,c
  4427  00F1D6  6EDA               	movwf	fsr2h,c
  4428  00F1D8  D802               	call	u2288
  4429  00F1DA  EFF9  F078         	goto	u2289
  4430  00F1DE                     u2288:
  4431  00F1DE  0005               	push	
  4432  00F1E0  6EFA               	movwf	pclath,c
  4433  00F1E2  50DE               	movf	postinc2,w,c
  4434  00F1E4  6EFD               	movwf	tosl,c
  4435  00F1E6  50DE               	movf	postinc2,w,c
  4436  00F1E8  6EFE               	movwf	tosh,c
  4437  00F1EA  50F8               	movf	tblptru,w,c
  4438  00F1EC  6EFF               	movwf	tosu,c
  4439  00F1EE  50FA               	movf	pclath,w,c
  4440  00F1F0  0012               	return		;indir
  4441  00F1F2                     u2289:
  4442                           
  4443                           ;main.c: 182:     port2_send1bit[b.b.b3]();
  4444  00F1F2  B42E               	btfsc	_b^(0+1280),2,c
  4445  00F1F4  EFFE  F078         	goto	u2291
  4446  00F1F8  EF02  F079         	goto	u2290
  4447  00F1FC                     u2291:
  4448  00F1FC  6A07               	clrf	??_port2_send3byte^(0+1280),c
  4449  00F1FE  2A07               	incf	??_port2_send3byte^(0+1280),f,c
  4450  00F200  EF03  F079         	goto	u2298
  4451  00F204                     u2290:
  4452  00F204  6A07               	clrf	??_port2_send3byte^(0+1280),c
  4453  00F206                     u2298:
  4454  00F206  5007               	movf	??_port2_send3byte^(0+1280),w,c
  4455  00F208  0D02               	mullw	2
  4456  00F20A  0E31               	movlw	low _port2_send1bit
  4457  00F20C  24F3               	addwf	243,w,c
  4458  00F20E  6ED9               	movwf	fsr2l,c
  4459  00F210  0E05               	movlw	high _port2_send1bit
  4460  00F212  20F4               	addwfc	prodh,w,c
  4461  00F214  6EDA               	movwf	fsr2h,c
  4462  00F216  D802               	call	u2308
  4463  00F218  EF18  F079         	goto	u2309
  4464  00F21C                     u2308:
  4465  00F21C  0005               	push	
  4466  00F21E  6EFA               	movwf	pclath,c
  4467  00F220  50DE               	movf	postinc2,w,c
  4468  00F222  6EFD               	movwf	tosl,c
  4469  00F224  50DE               	movf	postinc2,w,c
  4470  00F226  6EFE               	movwf	tosh,c
  4471  00F228  50F8               	movf	tblptru,w,c
  4472  00F22A  6EFF               	movwf	tosu,c
  4473  00F22C  50FA               	movf	pclath,w,c
  4474  00F22E  0012               	return		;indir
  4475  00F230                     u2309:
  4476                           
  4477                           ;main.c: 183:     port2_send1bit[b.b.b4]();
  4478  00F230  B62E               	btfsc	_b^(0+1280),3,c
  4479  00F232  EF1D  F079         	goto	u2311
  4480  00F236  EF21  F079         	goto	u2310
  4481  00F23A                     u2311:
  4482  00F23A  6A07               	clrf	??_port2_send3byte^(0+1280),c
  4483  00F23C  2A07               	incf	??_port2_send3byte^(0+1280),f,c
  4484  00F23E  EF22  F079         	goto	u2318
  4485  00F242                     u2310:
  4486  00F242  6A07               	clrf	??_port2_send3byte^(0+1280),c
  4487  00F244                     u2318:
  4488  00F244  5007               	movf	??_port2_send3byte^(0+1280),w,c
  4489  00F246  0D02               	mullw	2
  4490  00F248  0E31               	movlw	low _port2_send1bit
  4491  00F24A  24F3               	addwf	243,w,c
  4492  00F24C  6ED9               	movwf	fsr2l,c
  4493  00F24E  0E05               	movlw	high _port2_send1bit
  4494  00F250  20F4               	addwfc	prodh,w,c
  4495  00F252  6EDA               	movwf	fsr2h,c
  4496  00F254  D802               	call	u2328
  4497  00F256  EF37  F079         	goto	u2329
  4498  00F25A                     u2328:
  4499  00F25A  0005               	push	
  4500  00F25C  6EFA               	movwf	pclath,c
  4501  00F25E  50DE               	movf	postinc2,w,c
  4502  00F260  6EFD               	movwf	tosl,c
  4503  00F262  50DE               	movf	postinc2,w,c
  4504  00F264  6EFE               	movwf	tosh,c
  4505  00F266  50F8               	movf	tblptru,w,c
  4506  00F268  6EFF               	movwf	tosu,c
  4507  00F26A  50FA               	movf	pclath,w,c
  4508  00F26C  0012               	return		;indir
  4509  00F26E                     u2329:
  4510                           
  4511                           ;main.c: 184:     port2_send1bit[b.b.b5]();
  4512  00F26E  B82E               	btfsc	_b^(0+1280),4,c
  4513  00F270  EF3C  F079         	goto	u2331
  4514  00F274  EF40  F079         	goto	u2330
  4515  00F278                     u2331:
  4516  00F278  6A07               	clrf	??_port2_send3byte^(0+1280),c
  4517  00F27A  2A07               	incf	??_port2_send3byte^(0+1280),f,c
  4518  00F27C  EF41  F079         	goto	u2338
  4519  00F280                     u2330:
  4520  00F280  6A07               	clrf	??_port2_send3byte^(0+1280),c
  4521  00F282                     u2338:
  4522  00F282  5007               	movf	??_port2_send3byte^(0+1280),w,c
  4523  00F284  0D02               	mullw	2
  4524  00F286  0E31               	movlw	low _port2_send1bit
  4525  00F288  24F3               	addwf	243,w,c
  4526  00F28A  6ED9               	movwf	fsr2l,c
  4527  00F28C  0E05               	movlw	high _port2_send1bit
  4528  00F28E  20F4               	addwfc	prodh,w,c
  4529  00F290  6EDA               	movwf	fsr2h,c
  4530  00F292  D802               	call	u2348
  4531  00F294  EF56  F079         	goto	u2349
  4532  00F298                     u2348:
  4533  00F298  0005               	push	
  4534  00F29A  6EFA               	movwf	pclath,c
  4535  00F29C  50DE               	movf	postinc2,w,c
  4536  00F29E  6EFD               	movwf	tosl,c
  4537  00F2A0  50DE               	movf	postinc2,w,c
  4538  00F2A2  6EFE               	movwf	tosh,c
  4539  00F2A4  50F8               	movf	tblptru,w,c
  4540  00F2A6  6EFF               	movwf	tosu,c
  4541  00F2A8  50FA               	movf	pclath,w,c
  4542  00F2AA  0012               	return		;indir
  4543  00F2AC                     u2349:
  4544                           
  4545                           ;main.c: 185:     port2_send1bit[b.b.b6]();
  4546  00F2AC  BA2E               	btfsc	_b^(0+1280),5,c
  4547  00F2AE  EF5B  F079         	goto	u2351
  4548  00F2B2  EF5F  F079         	goto	u2350
  4549  00F2B6                     u2351:
  4550  00F2B6  6A07               	clrf	??_port2_send3byte^(0+1280),c
  4551  00F2B8  2A07               	incf	??_port2_send3byte^(0+1280),f,c
  4552  00F2BA  EF60  F079         	goto	u2358
  4553  00F2BE                     u2350:
  4554  00F2BE  6A07               	clrf	??_port2_send3byte^(0+1280),c
  4555  00F2C0                     u2358:
  4556  00F2C0  5007               	movf	??_port2_send3byte^(0+1280),w,c
  4557  00F2C2  0D02               	mullw	2
  4558  00F2C4  0E31               	movlw	low _port2_send1bit
  4559  00F2C6  24F3               	addwf	243,w,c
  4560  00F2C8  6ED9               	movwf	fsr2l,c
  4561  00F2CA  0E05               	movlw	high _port2_send1bit
  4562  00F2CC  20F4               	addwfc	prodh,w,c
  4563  00F2CE  6EDA               	movwf	fsr2h,c
  4564  00F2D0  D802               	call	u2368
  4565  00F2D2  EF75  F079         	goto	u2369
  4566  00F2D6                     u2368:
  4567  00F2D6  0005               	push	
  4568  00F2D8  6EFA               	movwf	pclath,c
  4569  00F2DA  50DE               	movf	postinc2,w,c
  4570  00F2DC  6EFD               	movwf	tosl,c
  4571  00F2DE  50DE               	movf	postinc2,w,c
  4572  00F2E0  6EFE               	movwf	tosh,c
  4573  00F2E2  50F8               	movf	tblptru,w,c
  4574  00F2E4  6EFF               	movwf	tosu,c
  4575  00F2E6  50FA               	movf	pclath,w,c
  4576  00F2E8  0012               	return		;indir
  4577  00F2EA                     u2369:
  4578                           
  4579                           ;main.c: 186:     port2_send1bit[b.b.b7]();
  4580  00F2EA  BC2E               	btfsc	_b^(0+1280),6,c
  4581  00F2EC  EF7A  F079         	goto	u2371
  4582  00F2F0  EF7E  F079         	goto	u2370
  4583  00F2F4                     u2371:
  4584  00F2F4  6A07               	clrf	??_port2_send3byte^(0+1280),c
  4585  00F2F6  2A07               	incf	??_port2_send3byte^(0+1280),f,c
  4586  00F2F8  EF7F  F079         	goto	u2378
  4587  00F2FC                     u2370:
  4588  00F2FC  6A07               	clrf	??_port2_send3byte^(0+1280),c
  4589  00F2FE                     u2378:
  4590  00F2FE  5007               	movf	??_port2_send3byte^(0+1280),w,c
  4591  00F300  0D02               	mullw	2
  4592  00F302  0E31               	movlw	low _port2_send1bit
  4593  00F304  24F3               	addwf	243,w,c
  4594  00F306  6ED9               	movwf	fsr2l,c
  4595  00F308  0E05               	movlw	high _port2_send1bit
  4596  00F30A  20F4               	addwfc	prodh,w,c
  4597  00F30C  6EDA               	movwf	fsr2h,c
  4598  00F30E  D802               	call	u2388
  4599  00F310  EF94  F079         	goto	u2389
  4600  00F314                     u2388:
  4601  00F314  0005               	push	
  4602  00F316  6EFA               	movwf	pclath,c
  4603  00F318  50DE               	movf	postinc2,w,c
  4604  00F31A  6EFD               	movwf	tosl,c
  4605  00F31C  50DE               	movf	postinc2,w,c
  4606  00F31E  6EFE               	movwf	tosh,c
  4607  00F320  50F8               	movf	tblptru,w,c
  4608  00F322  6EFF               	movwf	tosu,c
  4609  00F324  50FA               	movf	pclath,w,c
  4610  00F326  0012               	return		;indir
  4611  00F328                     u2389:
  4612                           
  4613                           ;main.c: 187:     port2_send1bit[b.b.b8]();
  4614  00F328  BE2E               	btfsc	_b^(0+1280),7,c
  4615  00F32A  EF99  F079         	goto	u2391
  4616  00F32E  EF9D  F079         	goto	u2390
  4617  00F332                     u2391:
  4618  00F332  6A07               	clrf	??_port2_send3byte^(0+1280),c
  4619  00F334  2A07               	incf	??_port2_send3byte^(0+1280),f,c
  4620  00F336  EF9E  F079         	goto	u2398
  4621  00F33A                     u2390:
  4622  00F33A  6A07               	clrf	??_port2_send3byte^(0+1280),c
  4623  00F33C                     u2398:
  4624  00F33C  5007               	movf	??_port2_send3byte^(0+1280),w,c
  4625  00F33E  0D02               	mullw	2
  4626  00F340  0E31               	movlw	low _port2_send1bit
  4627  00F342  24F3               	addwf	243,w,c
  4628  00F344  6ED9               	movwf	fsr2l,c
  4629  00F346  0E05               	movlw	high _port2_send1bit
  4630  00F348  20F4               	addwfc	prodh,w,c
  4631  00F34A  6EDA               	movwf	fsr2h,c
  4632  00F34C  D802               	call	u2408
  4633  00F34E  EFB3  F079         	goto	u2409
  4634  00F352                     u2408:
  4635  00F352  0005               	push	
  4636  00F354  6EFA               	movwf	pclath,c
  4637  00F356  50DE               	movf	postinc2,w,c
  4638  00F358  6EFD               	movwf	tosl,c
  4639  00F35A  50DE               	movf	postinc2,w,c
  4640  00F35C  6EFE               	movwf	tosh,c
  4641  00F35E  50F8               	movf	tblptru,w,c
  4642  00F360  6EFF               	movwf	tosu,c
  4643  00F362  50FA               	movf	pclath,w,c
  4644  00F364  0012               	return		;indir
  4645  00F366                     u2409:
  4646  00F366  0012               	return		;funcret
  4647  00F368                     __end_of_port2_send3byte:
  4648                           	callstack 0
  4649                           
  4650 ;; *************** function _port2_one *****************
  4651 ;; Defined at:
  4652 ;;		line 111 in file "main.c"
  4653 ;; Parameters:    Size  Location     Type
  4654 ;;		None
  4655 ;; Auto vars:     Size  Location     Type
  4656 ;;		None
  4657 ;; Return value:  Size  Location     Type
  4658 ;;                  2  139[None  ] int 
  4659 ;; Registers used:
  4660 ;;		None
  4661 ;; Tracked objects:
  4662 ;;		On entry : 0/0
  4663 ;;		On exit  : 0/0
  4664 ;;		Unchanged: 0/0
  4665 ;; Data sizes:     COMRAM   BANK5   BANK6   BANK7   BANK8   BANK9  BANK10  BANK11  BANK12  BANK13  BANK14  BANK15  BANK1
      +6  BANK17  BANK18  BANK19  BANK20  BANK21  BANK22  BANK23  BANK24  BANK25  BANK26  BANK27  BANK28  BANK29  BANK30  BANK3
      +1  BANK32  BANK33  BANK34  BANK35  BANK36
  4666 ;;      Params:         0       0       0       0       0       0       0       0       0       0       0       0       
      +0       0       0       0       0       0       0       0       0       0       0       0       0       0       0       
      +0       0       0       0       0       0
  4667 ;;      Locals:         0       0       0       0       0       0       0       0       0       0       0       0       
      +0       0       0       0       0       0       0       0       0       0       0       0       0       0       0       
      +0       0       0       0       0       0
  4668 ;;      Temps:          0       0       0       0       0       0       0       0       0       0       0       0       
      +0       0       0       0       0       0       0       0       0       0       0       0       0       0       0       
      +0       0       0       0       0       0
  4669 ;;      Totals:         0       0       0       0       0       0       0       0       0       0       0       0       
      +0       0       0       0       0       0       0       0       0       0       0       0       0       0       0       
      +0       0       0       0       0       0
  4670 ;;Total ram usage:        0 bytes
  4671 ;; Hardware stack levels used: 1
  4672 ;; This function calls:
  4673 ;;		Nothing
  4674 ;; This function is called by:
  4675 ;;		_port2_send3byte
  4676 ;; This function uses a non-reentrant model
  4677 ;;
  4678                           
  4679                           	psect	text9
  4680  00DE6E                     __ptext9:
  4681                           	callstack 0
  4682  00DE6E                     _port2_one:
  4683                           	callstack 124
  4684  00DE6E                     
  4685                           ;main.c: 112:     LATCbits.LATC5 = 1;
  4686  00DE6E  8AC0               	bsf	192,5,c	;volatile
  4687                           
  4688                           ;main.c: 113:     LATCbits.LATC5 = 1;
  4689  00DE70  8AC0               	bsf	192,5,c	;volatile
  4690                           
  4691                           ;main.c: 114:     LATCbits.LATC5 = 1;
  4692  00DE72  8AC0               	bsf	192,5,c	;volatile
  4693                           
  4694                           ;main.c: 115:     LATCbits.LATC5 = 1;
  4695  00DE74  8AC0               	bsf	192,5,c	;volatile
  4696                           
  4697                           ;main.c: 116:     LATCbits.LATC5 = 1;
  4698  00DE76  8AC0               	bsf	192,5,c	;volatile
  4699                           
  4700                           ;main.c: 117:     LATCbits.LATC5 = 1;
  4701  00DE78  8AC0               	bsf	192,5,c	;volatile
  4702                           
  4703                           ;main.c: 118:     LATCbits.LATC5 = 1;
  4704  00DE7A  8AC0               	bsf	192,5,c	;volatile
  4705                           
  4706                           ;main.c: 119:     LATCbits.LATC5 = 0;
  4707  00DE7C  9AC0               	bcf	192,5,c	;volatile
  4708                           
  4709                           ;main.c: 120:     LATCbits.LATC5 = 0;
  4710  00DE7E  9AC0               	bcf	192,5,c	;volatile
  4711                           
  4712                           ;main.c: 121:     LATCbits.LATC5 = 0;
  4713  00DE80  9AC0               	bcf	192,5,c	;volatile
  4714                           
  4715                           ;main.c: 122:     LATCbits.LATC5 = 0;
  4716  00DE82  9AC0               	bcf	192,5,c	;volatile
  4717                           
  4718                           ;main.c: 123:     LATCbits.LATC5 = 0;
  4719  00DE84  9AC0               	bcf	192,5,c	;volatile
  4720                           
  4721                           ;main.c: 124:     LATCbits.LATC5 = 0;
  4722  00DE86  9AC0               	bcf	192,5,c	;volatile
  4723                           
  4724                           ;main.c: 125:     LATCbits.LATC5 = 0;
  4725  00DE88  9AC0               	bcf	192,5,c	;volatile
  4726  00DE8A  0012               	return		;funcret
  4727  00DE8C                     __end_of_port2_one:
  4728                           	callstack 0
  4729                           
  4730 ;; *************** function _port2_zero *****************
  4731 ;; Defined at:
  4732 ;;		line 98 in file "main.c"
  4733 ;; Parameters:    Size  Location     Type
  4734 ;;		None
  4735 ;; Auto vars:     Size  Location     Type
  4736 ;;		None
  4737 ;; Return value:  Size  Location     Type
  4738 ;;                  2  136[None  ] int 
  4739 ;; Registers used:
  4740 ;;		None
  4741 ;; Tracked objects:
  4742 ;;		On entry : 0/0
  4743 ;;		On exit  : 0/0
  4744 ;;		Unchanged: 0/0
  4745 ;; Data sizes:     COMRAM   BANK5   BANK6   BANK7   BANK8   BANK9  BANK10  BANK11  BANK12  BANK13  BANK14  BANK15  BANK1
      +6  BANK17  BANK18  BANK19  BANK20  BANK21  BANK22  BANK23  BANK24  BANK25  BANK26  BANK27  BANK28  BANK29  BANK30  BANK3
      +1  BANK32  BANK33  BANK34  BANK35  BANK36
  4746 ;;      Params:         0       0       0       0       0       0       0       0       0       0       0       0       
      +0       0       0       0       0       0       0       0       0       0       0       0       0       0       0       
      +0       0       0       0       0       0
  4747 ;;      Locals:         0       0       0       0       0       0       0       0       0       0       0       0       
      +0       0       0       0       0       0       0       0       0       0       0       0       0       0       0       
      +0       0       0       0       0       0
  4748 ;;      Temps:          0       0       0       0       0       0       0       0       0       0       0       0       
      +0       0       0       0       0       0       0       0       0       0       0       0       0       0       0       
      +0       0       0       0       0       0
  4749 ;;      Totals:         0       0       0       0       0       0       0       0       0       0       0       0       
      +0       0       0       0       0       0       0       0       0       0       0       0       0       0       0       
      +0       0       0       0       0       0
  4750 ;;Total ram usage:        0 bytes
  4751 ;; Hardware stack levels used: 1
  4752 ;; This function calls:
  4753 ;;		Nothing
  4754 ;; This function is called by:
  4755 ;;		_port2_send3byte
  4756 ;; This function uses a non-reentrant model
  4757 ;;
  4758                           
  4759                           	psect	text10
  4760  00DE3A                     __ptext10:
  4761                           	callstack 0
  4762  00DE3A                     _port2_zero:
  4763                           	callstack 124
  4764  00DE3A                     
  4765                           ;main.c: 99:     LATCbits.LATC5 = 1;
  4766  00DE3A  8AC0               	bsf	192,5,c	;volatile
  4767                           
  4768                           ;main.c: 100:     LATCbits.LATC5 = 1;
  4769  00DE3C  8AC0               	bsf	192,5,c	;volatile
  4770                           
  4771                           ;main.c: 101:     LATCbits.LATC5 = 1;
  4772  00DE3E  8AC0               	bsf	192,5,c	;volatile
  4773                           
  4774                           ;main.c: 102:     LATCbits.LATC5 = 0;
  4775  00DE40  9AC0               	bcf	192,5,c	;volatile
  4776                           
  4777                           ;main.c: 103:     LATCbits.LATC5 = 0;
  4778  00DE42  9AC0               	bcf	192,5,c	;volatile
  4779                           
  4780                           ;main.c: 104:     LATCbits.LATC5 = 0;
  4781  00DE44  9AC0               	bcf	192,5,c	;volatile
  4782                           
  4783                           ;main.c: 105:     LATCbits.LATC5 = 0;
  4784  00DE46  9AC0               	bcf	192,5,c	;volatile
  4785                           
  4786                           ;main.c: 106:     LATCbits.LATC5 = 0;
  4787  00DE48  9AC0               	bcf	192,5,c	;volatile
  4788                           
  4789                           ;main.c: 107:     LATCbits.LATC5 = 0;
  4790  00DE4A  9AC0               	bcf	192,5,c	;volatile
  4791                           
  4792                           ;main.c: 108:     LATCbits.LATC5 = 0;
  4793  00DE4C  9AC0               	bcf	192,5,c	;volatile
  4794  00DE4E  0012               	return		;funcret
  4795  00DE50                     __end_of_port2_zero:
  4796                           	callstack 0
  4797                           
  4798 ;; *************** function _port1_send3byte *****************
  4799 ;; Defined at:
  4800 ;;		line 132 in file "main.c"
  4801 ;; Parameters:    Size  Location     Type
  4802 ;;  R               2    0[COMRAM] int 
  4803 ;;  G               2    2[COMRAM] int 
  4804 ;;  B               2    4[COMRAM] int 
  4805 ;; Auto vars:     Size  Location     Type
  4806 ;;		None
  4807 ;; Return value:  Size  Location     Type
  4808 ;;                  2    0[COMRAM] int 
  4809 ;; Registers used:
  4810 ;;		wreg, fsr2l, fsr2h, status,2, status,0, pcl, pclath, pclatu, tosl, prodl, prodh, cstack
  4811 ;; Tracked objects:
  4812 ;;		On entry : 0/0
  4813 ;;		On exit  : 0/0
  4814 ;;		Unchanged: 0/0
  4815 ;; Data sizes:     COMRAM   BANK5   BANK6   BANK7   BANK8   BANK9  BANK10  BANK11  BANK12  BANK13  BANK14  BANK15  BANK1
      +6  BANK17  BANK18  BANK19  BANK20  BANK21  BANK22  BANK23  BANK24  BANK25  BANK26  BANK27  BANK28  BANK29  BANK30  BANK3
      +1  BANK32  BANK33  BANK34  BANK35  BANK36
  4816 ;;      Params:         6       0       0       0       0       0       0       0       0       0       0       0       
      +0       0       0       0       0       0       0       0       0       0       0       0       0       0       0       
      +0       0       0       0       0       0
  4817 ;;      Locals:         0       0       0       0       0       0       0       0       0       0       0       0       
      +0       0       0       0       0       0       0       0       0       0       0       0       0       0       0       
      +0       0       0       0       0       0
  4818 ;;      Temps:          1       0       0       0       0       0       0       0       0       0       0       0       
      +0       0       0       0       0       0       0       0       0       0       0       0       0       0       0       
      +0       0       0       0       0       0
  4819 ;;      Totals:         7       0       0       0       0       0       0       0       0       0       0       0       
      +0       0       0       0       0       0       0       0       0       0       0       0       0       0       0       
      +0       0       0       0       0       0
  4820 ;;Total ram usage:        7 bytes
  4821 ;; Hardware stack levels used: 1
  4822 ;; Hardware stack levels required when called: 1
  4823 ;; This function calls:
  4824 ;;		_port1_one
  4825 ;;		_port1_zero
  4826 ;; This function is called by:
  4827 ;;		_Red
  4828 ;;		_Blue
  4829 ;;		_Gaming
  4830 ;; This function uses a non-reentrant model
  4831 ;;
  4832                           
  4833                           	psect	text11
  4834  00E7AC                     __ptext11:
  4835                           	callstack 0
  4836  00E7AC                     _port1_send3byte:
  4837                           	callstack 124
  4838  00E7AC                     
  4839                           ;main.c: 133:     g.chr = G;r.chr = R;b.chr = B;
  4840  00E7AC  C503  F52F         	movff	port1_send3byte@G,_g
  4841  00E7B0  C501  F530         	movff	port1_send3byte@R,_r
  4842  00E7B4  C505  F52E         	movff	port1_send3byte@B,_b
  4843  00E7B8                     
  4844                           ;main.c: 135:     port1_send1bit[g.b.b1]();
  4845  00E7B8  B02F               	btfsc	_g^(0+1280),0,c
  4846  00E7BA  EFE1  F073         	goto	u1451
  4847  00E7BE  EFE5  F073         	goto	u1450
  4848  00E7C2                     u1451:
  4849  00E7C2  6A07               	clrf	??_port1_send3byte^(0+1280),c
  4850  00E7C4  2A07               	incf	??_port1_send3byte^(0+1280),f,c
  4851  00E7C6  EFE6  F073         	goto	u1458
  4852  00E7CA                     u1450:
  4853  00E7CA  6A07               	clrf	??_port1_send3byte^(0+1280),c
  4854  00E7CC                     u1458:
  4855  00E7CC  5007               	movf	??_port1_send3byte^(0+1280),w,c
  4856  00E7CE  0D02               	mullw	2
  4857  00E7D0  0E35               	movlw	low _port1_send1bit
  4858  00E7D2  24F3               	addwf	243,w,c
  4859  00E7D4  6ED9               	movwf	fsr2l,c
  4860  00E7D6  0E05               	movlw	high _port1_send1bit
  4861  00E7D8  20F4               	addwfc	prodh,w,c
  4862  00E7DA  6EDA               	movwf	fsr2h,c
  4863  00E7DC  D802               	call	u1468
  4864  00E7DE  EFFB  F073         	goto	u1469
  4865  00E7E2                     u1468:
  4866  00E7E2  0005               	push	
  4867  00E7E4  6EFA               	movwf	pclath,c
  4868  00E7E6  50DE               	movf	postinc2,w,c
  4869  00E7E8  6EFD               	movwf	tosl,c
  4870  00E7EA  50DE               	movf	postinc2,w,c
  4871  00E7EC  6EFE               	movwf	tosh,c
  4872  00E7EE  50F8               	movf	tblptru,w,c
  4873  00E7F0  6EFF               	movwf	tosu,c
  4874  00E7F2  50FA               	movf	pclath,w,c
  4875  00E7F4  0012               	return		;indir
  4876  00E7F6                     u1469:
  4877                           
  4878                           ;main.c: 136:     port1_send1bit[g.b.b2]();
  4879  00E7F6  B22F               	btfsc	_g^(0+1280),1,c
  4880  00E7F8  EF00  F074         	goto	u1471
  4881  00E7FC  EF04  F074         	goto	u1470
  4882  00E800                     u1471:
  4883  00E800  6A07               	clrf	??_port1_send3byte^(0+1280),c
  4884  00E802  2A07               	incf	??_port1_send3byte^(0+1280),f,c
  4885  00E804  EF05  F074         	goto	u1478
  4886  00E808                     u1470:
  4887  00E808  6A07               	clrf	??_port1_send3byte^(0+1280),c
  4888  00E80A                     u1478:
  4889  00E80A  5007               	movf	??_port1_send3byte^(0+1280),w,c
  4890  00E80C  0D02               	mullw	2
  4891  00E80E  0E35               	movlw	low _port1_send1bit
  4892  00E810  24F3               	addwf	243,w,c
  4893  00E812  6ED9               	movwf	fsr2l,c
  4894  00E814  0E05               	movlw	high _port1_send1bit
  4895  00E816  20F4               	addwfc	prodh,w,c
  4896  00E818  6EDA               	movwf	fsr2h,c
  4897  00E81A  D802               	call	u1488
  4898  00E81C  EF1A  F074         	goto	u1489
  4899  00E820                     u1488:
  4900  00E820  0005               	push	
  4901  00E822  6EFA               	movwf	pclath,c
  4902  00E824  50DE               	movf	postinc2,w,c
  4903  00E826  6EFD               	movwf	tosl,c
  4904  00E828  50DE               	movf	postinc2,w,c
  4905  00E82A  6EFE               	movwf	tosh,c
  4906  00E82C  50F8               	movf	tblptru,w,c
  4907  00E82E  6EFF               	movwf	tosu,c
  4908  00E830  50FA               	movf	pclath,w,c
  4909  00E832  0012               	return		;indir
  4910  00E834                     u1489:
  4911                           
  4912                           ;main.c: 137:     port1_send1bit[g.b.b3]();
  4913  00E834  B42F               	btfsc	_g^(0+1280),2,c
  4914  00E836  EF1F  F074         	goto	u1491
  4915  00E83A  EF23  F074         	goto	u1490
  4916  00E83E                     u1491:
  4917  00E83E  6A07               	clrf	??_port1_send3byte^(0+1280),c
  4918  00E840  2A07               	incf	??_port1_send3byte^(0+1280),f,c
  4919  00E842  EF24  F074         	goto	u1498
  4920  00E846                     u1490:
  4921  00E846  6A07               	clrf	??_port1_send3byte^(0+1280),c
  4922  00E848                     u1498:
  4923  00E848  5007               	movf	??_port1_send3byte^(0+1280),w,c
  4924  00E84A  0D02               	mullw	2
  4925  00E84C  0E35               	movlw	low _port1_send1bit
  4926  00E84E  24F3               	addwf	243,w,c
  4927  00E850  6ED9               	movwf	fsr2l,c
  4928  00E852  0E05               	movlw	high _port1_send1bit
  4929  00E854  20F4               	addwfc	prodh,w,c
  4930  00E856  6EDA               	movwf	fsr2h,c
  4931  00E858  D802               	call	u1508
  4932  00E85A  EF39  F074         	goto	u1509
  4933  00E85E                     u1508:
  4934  00E85E  0005               	push	
  4935  00E860  6EFA               	movwf	pclath,c
  4936  00E862  50DE               	movf	postinc2,w,c
  4937  00E864  6EFD               	movwf	tosl,c
  4938  00E866  50DE               	movf	postinc2,w,c
  4939  00E868  6EFE               	movwf	tosh,c
  4940  00E86A  50F8               	movf	tblptru,w,c
  4941  00E86C  6EFF               	movwf	tosu,c
  4942  00E86E  50FA               	movf	pclath,w,c
  4943  00E870  0012               	return		;indir
  4944  00E872                     u1509:
  4945                           
  4946                           ;main.c: 138:     port1_send1bit[g.b.b4]();
  4947  00E872  B62F               	btfsc	_g^(0+1280),3,c
  4948  00E874  EF3E  F074         	goto	u1511
  4949  00E878  EF42  F074         	goto	u1510
  4950  00E87C                     u1511:
  4951  00E87C  6A07               	clrf	??_port1_send3byte^(0+1280),c
  4952  00E87E  2A07               	incf	??_port1_send3byte^(0+1280),f,c
  4953  00E880  EF43  F074         	goto	u1518
  4954  00E884                     u1510:
  4955  00E884  6A07               	clrf	??_port1_send3byte^(0+1280),c
  4956  00E886                     u1518:
  4957  00E886  5007               	movf	??_port1_send3byte^(0+1280),w,c
  4958  00E888  0D02               	mullw	2
  4959  00E88A  0E35               	movlw	low _port1_send1bit
  4960  00E88C  24F3               	addwf	243,w,c
  4961  00E88E  6ED9               	movwf	fsr2l,c
  4962  00E890  0E05               	movlw	high _port1_send1bit
  4963  00E892  20F4               	addwfc	prodh,w,c
  4964  00E894  6EDA               	movwf	fsr2h,c
  4965  00E896  D802               	call	u1528
  4966  00E898  EF58  F074         	goto	u1529
  4967  00E89C                     u1528:
  4968  00E89C  0005               	push	
  4969  00E89E  6EFA               	movwf	pclath,c
  4970  00E8A0  50DE               	movf	postinc2,w,c
  4971  00E8A2  6EFD               	movwf	tosl,c
  4972  00E8A4  50DE               	movf	postinc2,w,c
  4973  00E8A6  6EFE               	movwf	tosh,c
  4974  00E8A8  50F8               	movf	tblptru,w,c
  4975  00E8AA  6EFF               	movwf	tosu,c
  4976  00E8AC  50FA               	movf	pclath,w,c
  4977  00E8AE  0012               	return		;indir
  4978  00E8B0                     u1529:
  4979                           
  4980                           ;main.c: 139:     port1_send1bit[g.b.b5]();
  4981  00E8B0  B82F               	btfsc	_g^(0+1280),4,c
  4982  00E8B2  EF5D  F074         	goto	u1531
  4983  00E8B6  EF61  F074         	goto	u1530
  4984  00E8BA                     u1531:
  4985  00E8BA  6A07               	clrf	??_port1_send3byte^(0+1280),c
  4986  00E8BC  2A07               	incf	??_port1_send3byte^(0+1280),f,c
  4987  00E8BE  EF62  F074         	goto	u1538
  4988  00E8C2                     u1530:
  4989  00E8C2  6A07               	clrf	??_port1_send3byte^(0+1280),c
  4990  00E8C4                     u1538:
  4991  00E8C4  5007               	movf	??_port1_send3byte^(0+1280),w,c
  4992  00E8C6  0D02               	mullw	2
  4993  00E8C8  0E35               	movlw	low _port1_send1bit
  4994  00E8CA  24F3               	addwf	243,w,c
  4995  00E8CC  6ED9               	movwf	fsr2l,c
  4996  00E8CE  0E05               	movlw	high _port1_send1bit
  4997  00E8D0  20F4               	addwfc	prodh,w,c
  4998  00E8D2  6EDA               	movwf	fsr2h,c
  4999  00E8D4  D802               	call	u1548
  5000  00E8D6  EF77  F074         	goto	u1549
  5001  00E8DA                     u1548:
  5002  00E8DA  0005               	push	
  5003  00E8DC  6EFA               	movwf	pclath,c
  5004  00E8DE  50DE               	movf	postinc2,w,c
  5005  00E8E0  6EFD               	movwf	tosl,c
  5006  00E8E2  50DE               	movf	postinc2,w,c
  5007  00E8E4  6EFE               	movwf	tosh,c
  5008  00E8E6  50F8               	movf	tblptru,w,c
  5009  00E8E8  6EFF               	movwf	tosu,c
  5010  00E8EA  50FA               	movf	pclath,w,c
  5011  00E8EC  0012               	return		;indir
  5012  00E8EE                     u1549:
  5013                           
  5014                           ;main.c: 140:     port1_send1bit[g.b.b6]();
  5015  00E8EE  BA2F               	btfsc	_g^(0+1280),5,c
  5016  00E8F0  EF7C  F074         	goto	u1551
  5017  00E8F4  EF80  F074         	goto	u1550
  5018  00E8F8                     u1551:
  5019  00E8F8  6A07               	clrf	??_port1_send3byte^(0+1280),c
  5020  00E8FA  2A07               	incf	??_port1_send3byte^(0+1280),f,c
  5021  00E8FC  EF81  F074         	goto	u1558
  5022  00E900                     u1550:
  5023  00E900  6A07               	clrf	??_port1_send3byte^(0+1280),c
  5024  00E902                     u1558:
  5025  00E902  5007               	movf	??_port1_send3byte^(0+1280),w,c
  5026  00E904  0D02               	mullw	2
  5027  00E906  0E35               	movlw	low _port1_send1bit
  5028  00E908  24F3               	addwf	243,w,c
  5029  00E90A  6ED9               	movwf	fsr2l,c
  5030  00E90C  0E05               	movlw	high _port1_send1bit
  5031  00E90E  20F4               	addwfc	prodh,w,c
  5032  00E910  6EDA               	movwf	fsr2h,c
  5033  00E912  D802               	call	u1568
  5034  00E914  EF96  F074         	goto	u1569
  5035  00E918                     u1568:
  5036  00E918  0005               	push	
  5037  00E91A  6EFA               	movwf	pclath,c
  5038  00E91C  50DE               	movf	postinc2,w,c
  5039  00E91E  6EFD               	movwf	tosl,c
  5040  00E920  50DE               	movf	postinc2,w,c
  5041  00E922  6EFE               	movwf	tosh,c
  5042  00E924  50F8               	movf	tblptru,w,c
  5043  00E926  6EFF               	movwf	tosu,c
  5044  00E928  50FA               	movf	pclath,w,c
  5045  00E92A  0012               	return		;indir
  5046  00E92C                     u1569:
  5047                           
  5048                           ;main.c: 141:     port1_send1bit[g.b.b7]();
  5049  00E92C  BC2F               	btfsc	_g^(0+1280),6,c
  5050  00E92E  EF9B  F074         	goto	u1571
  5051  00E932  EF9F  F074         	goto	u1570
  5052  00E936                     u1571:
  5053  00E936  6A07               	clrf	??_port1_send3byte^(0+1280),c
  5054  00E938  2A07               	incf	??_port1_send3byte^(0+1280),f,c
  5055  00E93A  EFA0  F074         	goto	u1578
  5056  00E93E                     u1570:
  5057  00E93E  6A07               	clrf	??_port1_send3byte^(0+1280),c
  5058  00E940                     u1578:
  5059  00E940  5007               	movf	??_port1_send3byte^(0+1280),w,c
  5060  00E942  0D02               	mullw	2
  5061  00E944  0E35               	movlw	low _port1_send1bit
  5062  00E946  24F3               	addwf	243,w,c
  5063  00E948  6ED9               	movwf	fsr2l,c
  5064  00E94A  0E05               	movlw	high _port1_send1bit
  5065  00E94C  20F4               	addwfc	prodh,w,c
  5066  00E94E  6EDA               	movwf	fsr2h,c
  5067  00E950  D802               	call	u1588
  5068  00E952  EFB5  F074         	goto	u1589
  5069  00E956                     u1588:
  5070  00E956  0005               	push	
  5071  00E958  6EFA               	movwf	pclath,c
  5072  00E95A  50DE               	movf	postinc2,w,c
  5073  00E95C  6EFD               	movwf	tosl,c
  5074  00E95E  50DE               	movf	postinc2,w,c
  5075  00E960  6EFE               	movwf	tosh,c
  5076  00E962  50F8               	movf	tblptru,w,c
  5077  00E964  6EFF               	movwf	tosu,c
  5078  00E966  50FA               	movf	pclath,w,c
  5079  00E968  0012               	return		;indir
  5080  00E96A                     u1589:
  5081                           
  5082                           ;main.c: 142:     port1_send1bit[g.b.b8]();
  5083  00E96A  BE2F               	btfsc	_g^(0+1280),7,c
  5084  00E96C  EFBA  F074         	goto	u1591
  5085  00E970  EFBE  F074         	goto	u1590
  5086  00E974                     u1591:
  5087  00E974  6A07               	clrf	??_port1_send3byte^(0+1280),c
  5088  00E976  2A07               	incf	??_port1_send3byte^(0+1280),f,c
  5089  00E978  EFBF  F074         	goto	u1598
  5090  00E97C                     u1590:
  5091  00E97C  6A07               	clrf	??_port1_send3byte^(0+1280),c
  5092  00E97E                     u1598:
  5093  00E97E  5007               	movf	??_port1_send3byte^(0+1280),w,c
  5094  00E980  0D02               	mullw	2
  5095  00E982  0E35               	movlw	low _port1_send1bit
  5096  00E984  24F3               	addwf	243,w,c
  5097  00E986  6ED9               	movwf	fsr2l,c
  5098  00E988  0E05               	movlw	high _port1_send1bit
  5099  00E98A  20F4               	addwfc	prodh,w,c
  5100  00E98C  6EDA               	movwf	fsr2h,c
  5101  00E98E  D802               	call	u1608
  5102  00E990  EFD4  F074         	goto	u1609
  5103  00E994                     u1608:
  5104  00E994  0005               	push	
  5105  00E996  6EFA               	movwf	pclath,c
  5106  00E998  50DE               	movf	postinc2,w,c
  5107  00E99A  6EFD               	movwf	tosl,c
  5108  00E99C  50DE               	movf	postinc2,w,c
  5109  00E99E  6EFE               	movwf	tosh,c
  5110  00E9A0  50F8               	movf	tblptru,w,c
  5111  00E9A2  6EFF               	movwf	tosu,c
  5112  00E9A4  50FA               	movf	pclath,w,c
  5113  00E9A6  0012               	return		;indir
  5114  00E9A8                     u1609:
  5115                           
  5116                           ;main.c: 143:     port1_send1bit[r.b.b1]();
  5117  00E9A8  B030               	btfsc	_r^(0+1280),0,c
  5118  00E9AA  EFD9  F074         	goto	u1611
  5119  00E9AE  EFDD  F074         	goto	u1610
  5120  00E9B2                     u1611:
  5121  00E9B2  6A07               	clrf	??_port1_send3byte^(0+1280),c
  5122  00E9B4  2A07               	incf	??_port1_send3byte^(0+1280),f,c
  5123  00E9B6  EFDE  F074         	goto	u1618
  5124  00E9BA                     u1610:
  5125  00E9BA  6A07               	clrf	??_port1_send3byte^(0+1280),c
  5126  00E9BC                     u1618:
  5127  00E9BC  5007               	movf	??_port1_send3byte^(0+1280),w,c
  5128  00E9BE  0D02               	mullw	2
  5129  00E9C0  0E35               	movlw	low _port1_send1bit
  5130  00E9C2  24F3               	addwf	243,w,c
  5131  00E9C4  6ED9               	movwf	fsr2l,c
  5132  00E9C6  0E05               	movlw	high _port1_send1bit
  5133  00E9C8  20F4               	addwfc	prodh,w,c
  5134  00E9CA  6EDA               	movwf	fsr2h,c
  5135  00E9CC  D802               	call	u1628
  5136  00E9CE  EFF3  F074         	goto	u1629
  5137  00E9D2                     u1628:
  5138  00E9D2  0005               	push	
  5139  00E9D4  6EFA               	movwf	pclath,c
  5140  00E9D6  50DE               	movf	postinc2,w,c
  5141  00E9D8  6EFD               	movwf	tosl,c
  5142  00E9DA  50DE               	movf	postinc2,w,c
  5143  00E9DC  6EFE               	movwf	tosh,c
  5144  00E9DE  50F8               	movf	tblptru,w,c
  5145  00E9E0  6EFF               	movwf	tosu,c
  5146  00E9E2  50FA               	movf	pclath,w,c
  5147  00E9E4  0012               	return		;indir
  5148  00E9E6                     u1629:
  5149                           
  5150                           ;main.c: 144:     port1_send1bit[r.b.b2]();
  5151  00E9E6  B230               	btfsc	_r^(0+1280),1,c
  5152  00E9E8  EFF8  F074         	goto	u1631
  5153  00E9EC  EFFC  F074         	goto	u1630
  5154  00E9F0                     u1631:
  5155  00E9F0  6A07               	clrf	??_port1_send3byte^(0+1280),c
  5156  00E9F2  2A07               	incf	??_port1_send3byte^(0+1280),f,c
  5157  00E9F4  EFFD  F074         	goto	u1638
  5158  00E9F8                     u1630:
  5159  00E9F8  6A07               	clrf	??_port1_send3byte^(0+1280),c
  5160  00E9FA                     u1638:
  5161  00E9FA  5007               	movf	??_port1_send3byte^(0+1280),w,c
  5162  00E9FC  0D02               	mullw	2
  5163  00E9FE  0E35               	movlw	low _port1_send1bit
  5164  00EA00  24F3               	addwf	243,w,c
  5165  00EA02  6ED9               	movwf	fsr2l,c
  5166  00EA04  0E05               	movlw	high _port1_send1bit
  5167  00EA06  20F4               	addwfc	prodh,w,c
  5168  00EA08  6EDA               	movwf	fsr2h,c
  5169  00EA0A  D802               	call	u1648
  5170  00EA0C  EF12  F075         	goto	u1649
  5171  00EA10                     u1648:
  5172  00EA10  0005               	push	
  5173  00EA12  6EFA               	movwf	pclath,c
  5174  00EA14  50DE               	movf	postinc2,w,c
  5175  00EA16  6EFD               	movwf	tosl,c
  5176  00EA18  50DE               	movf	postinc2,w,c
  5177  00EA1A  6EFE               	movwf	tosh,c
  5178  00EA1C  50F8               	movf	tblptru,w,c
  5179  00EA1E  6EFF               	movwf	tosu,c
  5180  00EA20  50FA               	movf	pclath,w,c
  5181  00EA22  0012               	return		;indir
  5182  00EA24                     u1649:
  5183                           
  5184                           ;main.c: 145:     port1_send1bit[r.b.b3]();
  5185  00EA24  B430               	btfsc	_r^(0+1280),2,c
  5186  00EA26  EF17  F075         	goto	u1651
  5187  00EA2A  EF1B  F075         	goto	u1650
  5188  00EA2E                     u1651:
  5189  00EA2E  6A07               	clrf	??_port1_send3byte^(0+1280),c
  5190  00EA30  2A07               	incf	??_port1_send3byte^(0+1280),f,c
  5191  00EA32  EF1C  F075         	goto	u1658
  5192  00EA36                     u1650:
  5193  00EA36  6A07               	clrf	??_port1_send3byte^(0+1280),c
  5194  00EA38                     u1658:
  5195  00EA38  5007               	movf	??_port1_send3byte^(0+1280),w,c
  5196  00EA3A  0D02               	mullw	2
  5197  00EA3C  0E35               	movlw	low _port1_send1bit
  5198  00EA3E  24F3               	addwf	243,w,c
  5199  00EA40  6ED9               	movwf	fsr2l,c
  5200  00EA42  0E05               	movlw	high _port1_send1bit
  5201  00EA44  20F4               	addwfc	prodh,w,c
  5202  00EA46  6EDA               	movwf	fsr2h,c
  5203  00EA48  D802               	call	u1668
  5204  00EA4A  EF31  F075         	goto	u1669
  5205  00EA4E                     u1668:
  5206  00EA4E  0005               	push	
  5207  00EA50  6EFA               	movwf	pclath,c
  5208  00EA52  50DE               	movf	postinc2,w,c
  5209  00EA54  6EFD               	movwf	tosl,c
  5210  00EA56  50DE               	movf	postinc2,w,c
  5211  00EA58  6EFE               	movwf	tosh,c
  5212  00EA5A  50F8               	movf	tblptru,w,c
  5213  00EA5C  6EFF               	movwf	tosu,c
  5214  00EA5E  50FA               	movf	pclath,w,c
  5215  00EA60  0012               	return		;indir
  5216  00EA62                     u1669:
  5217                           
  5218                           ;main.c: 146:     port1_send1bit[r.b.b4]();
  5219  00EA62  B630               	btfsc	_r^(0+1280),3,c
  5220  00EA64  EF36  F075         	goto	u1671
  5221  00EA68  EF3A  F075         	goto	u1670
  5222  00EA6C                     u1671:
  5223  00EA6C  6A07               	clrf	??_port1_send3byte^(0+1280),c
  5224  00EA6E  2A07               	incf	??_port1_send3byte^(0+1280),f,c
  5225  00EA70  EF3B  F075         	goto	u1678
  5226  00EA74                     u1670:
  5227  00EA74  6A07               	clrf	??_port1_send3byte^(0+1280),c
  5228  00EA76                     u1678:
  5229  00EA76  5007               	movf	??_port1_send3byte^(0+1280),w,c
  5230  00EA78  0D02               	mullw	2
  5231  00EA7A  0E35               	movlw	low _port1_send1bit
  5232  00EA7C  24F3               	addwf	243,w,c
  5233  00EA7E  6ED9               	movwf	fsr2l,c
  5234  00EA80  0E05               	movlw	high _port1_send1bit
  5235  00EA82  20F4               	addwfc	prodh,w,c
  5236  00EA84  6EDA               	movwf	fsr2h,c
  5237  00EA86  D802               	call	u1688
  5238  00EA88  EF50  F075         	goto	u1689
  5239  00EA8C                     u1688:
  5240  00EA8C  0005               	push	
  5241  00EA8E  6EFA               	movwf	pclath,c
  5242  00EA90  50DE               	movf	postinc2,w,c
  5243  00EA92  6EFD               	movwf	tosl,c
  5244  00EA94  50DE               	movf	postinc2,w,c
  5245  00EA96  6EFE               	movwf	tosh,c
  5246  00EA98  50F8               	movf	tblptru,w,c
  5247  00EA9A  6EFF               	movwf	tosu,c
  5248  00EA9C  50FA               	movf	pclath,w,c
  5249  00EA9E  0012               	return		;indir
  5250  00EAA0                     u1689:
  5251                           
  5252                           ;main.c: 147:     port1_send1bit[r.b.b5]();
  5253  00EAA0  B830               	btfsc	_r^(0+1280),4,c
  5254  00EAA2  EF55  F075         	goto	u1691
  5255  00EAA6  EF59  F075         	goto	u1690
  5256  00EAAA                     u1691:
  5257  00EAAA  6A07               	clrf	??_port1_send3byte^(0+1280),c
  5258  00EAAC  2A07               	incf	??_port1_send3byte^(0+1280),f,c
  5259  00EAAE  EF5A  F075         	goto	u1698
  5260  00EAB2                     u1690:
  5261  00EAB2  6A07               	clrf	??_port1_send3byte^(0+1280),c
  5262  00EAB4                     u1698:
  5263  00EAB4  5007               	movf	??_port1_send3byte^(0+1280),w,c
  5264  00EAB6  0D02               	mullw	2
  5265  00EAB8  0E35               	movlw	low _port1_send1bit
  5266  00EABA  24F3               	addwf	243,w,c
  5267  00EABC  6ED9               	movwf	fsr2l,c
  5268  00EABE  0E05               	movlw	high _port1_send1bit
  5269  00EAC0  20F4               	addwfc	prodh,w,c
  5270  00EAC2  6EDA               	movwf	fsr2h,c
  5271  00EAC4  D802               	call	u1708
  5272  00EAC6  EF6F  F075         	goto	u1709
  5273  00EACA                     u1708:
  5274  00EACA  0005               	push	
  5275  00EACC  6EFA               	movwf	pclath,c
  5276  00EACE  50DE               	movf	postinc2,w,c
  5277  00EAD0  6EFD               	movwf	tosl,c
  5278  00EAD2  50DE               	movf	postinc2,w,c
  5279  00EAD4  6EFE               	movwf	tosh,c
  5280  00EAD6  50F8               	movf	tblptru,w,c
  5281  00EAD8  6EFF               	movwf	tosu,c
  5282  00EADA  50FA               	movf	pclath,w,c
  5283  00EADC  0012               	return		;indir
  5284  00EADE                     u1709:
  5285                           
  5286                           ;main.c: 148:     port1_send1bit[r.b.b6]();
  5287  00EADE  BA30               	btfsc	_r^(0+1280),5,c
  5288  00EAE0  EF74  F075         	goto	u1711
  5289  00EAE4  EF78  F075         	goto	u1710
  5290  00EAE8                     u1711:
  5291  00EAE8  6A07               	clrf	??_port1_send3byte^(0+1280),c
  5292  00EAEA  2A07               	incf	??_port1_send3byte^(0+1280),f,c
  5293  00EAEC  EF79  F075         	goto	u1718
  5294  00EAF0                     u1710:
  5295  00EAF0  6A07               	clrf	??_port1_send3byte^(0+1280),c
  5296  00EAF2                     u1718:
  5297  00EAF2  5007               	movf	??_port1_send3byte^(0+1280),w,c
  5298  00EAF4  0D02               	mullw	2
  5299  00EAF6  0E35               	movlw	low _port1_send1bit
  5300  00EAF8  24F3               	addwf	243,w,c
  5301  00EAFA  6ED9               	movwf	fsr2l,c
  5302  00EAFC  0E05               	movlw	high _port1_send1bit
  5303  00EAFE  20F4               	addwfc	prodh,w,c
  5304  00EB00  6EDA               	movwf	fsr2h,c
  5305  00EB02  D802               	call	u1728
  5306  00EB04  EF8E  F075         	goto	u1729
  5307  00EB08                     u1728:
  5308  00EB08  0005               	push	
  5309  00EB0A  6EFA               	movwf	pclath,c
  5310  00EB0C  50DE               	movf	postinc2,w,c
  5311  00EB0E  6EFD               	movwf	tosl,c
  5312  00EB10  50DE               	movf	postinc2,w,c
  5313  00EB12  6EFE               	movwf	tosh,c
  5314  00EB14  50F8               	movf	tblptru,w,c
  5315  00EB16  6EFF               	movwf	tosu,c
  5316  00EB18  50FA               	movf	pclath,w,c
  5317  00EB1A  0012               	return		;indir
  5318  00EB1C                     u1729:
  5319                           
  5320                           ;main.c: 149:     port1_send1bit[r.b.b7]();
  5321  00EB1C  BC30               	btfsc	_r^(0+1280),6,c
  5322  00EB1E  EF93  F075         	goto	u1731
  5323  00EB22  EF97  F075         	goto	u1730
  5324  00EB26                     u1731:
  5325  00EB26  6A07               	clrf	??_port1_send3byte^(0+1280),c
  5326  00EB28  2A07               	incf	??_port1_send3byte^(0+1280),f,c
  5327  00EB2A  EF98  F075         	goto	u1738
  5328  00EB2E                     u1730:
  5329  00EB2E  6A07               	clrf	??_port1_send3byte^(0+1280),c
  5330  00EB30                     u1738:
  5331  00EB30  5007               	movf	??_port1_send3byte^(0+1280),w,c
  5332  00EB32  0D02               	mullw	2
  5333  00EB34  0E35               	movlw	low _port1_send1bit
  5334  00EB36  24F3               	addwf	243,w,c
  5335  00EB38  6ED9               	movwf	fsr2l,c
  5336  00EB3A  0E05               	movlw	high _port1_send1bit
  5337  00EB3C  20F4               	addwfc	prodh,w,c
  5338  00EB3E  6EDA               	movwf	fsr2h,c
  5339  00EB40  D802               	call	u1748
  5340  00EB42  EFAD  F075         	goto	u1749
  5341  00EB46                     u1748:
  5342  00EB46  0005               	push	
  5343  00EB48  6EFA               	movwf	pclath,c
  5344  00EB4A  50DE               	movf	postinc2,w,c
  5345  00EB4C  6EFD               	movwf	tosl,c
  5346  00EB4E  50DE               	movf	postinc2,w,c
  5347  00EB50  6EFE               	movwf	tosh,c
  5348  00EB52  50F8               	movf	tblptru,w,c
  5349  00EB54  6EFF               	movwf	tosu,c
  5350  00EB56  50FA               	movf	pclath,w,c
  5351  00EB58  0012               	return		;indir
  5352  00EB5A                     u1749:
  5353                           
  5354                           ;main.c: 150:     port1_send1bit[r.b.b8]();
  5355  00EB5A  BE30               	btfsc	_r^(0+1280),7,c
  5356  00EB5C  EFB2  F075         	goto	u1751
  5357  00EB60  EFB6  F075         	goto	u1750
  5358  00EB64                     u1751:
  5359  00EB64  6A07               	clrf	??_port1_send3byte^(0+1280),c
  5360  00EB66  2A07               	incf	??_port1_send3byte^(0+1280),f,c
  5361  00EB68  EFB7  F075         	goto	u1758
  5362  00EB6C                     u1750:
  5363  00EB6C  6A07               	clrf	??_port1_send3byte^(0+1280),c
  5364  00EB6E                     u1758:
  5365  00EB6E  5007               	movf	??_port1_send3byte^(0+1280),w,c
  5366  00EB70  0D02               	mullw	2
  5367  00EB72  0E35               	movlw	low _port1_send1bit
  5368  00EB74  24F3               	addwf	243,w,c
  5369  00EB76  6ED9               	movwf	fsr2l,c
  5370  00EB78  0E05               	movlw	high _port1_send1bit
  5371  00EB7A  20F4               	addwfc	prodh,w,c
  5372  00EB7C  6EDA               	movwf	fsr2h,c
  5373  00EB7E  D802               	call	u1768
  5374  00EB80  EFCC  F075         	goto	u1769
  5375  00EB84                     u1768:
  5376  00EB84  0005               	push	
  5377  00EB86  6EFA               	movwf	pclath,c
  5378  00EB88  50DE               	movf	postinc2,w,c
  5379  00EB8A  6EFD               	movwf	tosl,c
  5380  00EB8C  50DE               	movf	postinc2,w,c
  5381  00EB8E  6EFE               	movwf	tosh,c
  5382  00EB90  50F8               	movf	tblptru,w,c
  5383  00EB92  6EFF               	movwf	tosu,c
  5384  00EB94  50FA               	movf	pclath,w,c
  5385  00EB96  0012               	return		;indir
  5386  00EB98                     u1769:
  5387                           
  5388                           ;main.c: 151:     port1_send1bit[b.b.b1]();
  5389  00EB98  B02E               	btfsc	_b^(0+1280),0,c
  5390  00EB9A  EFD1  F075         	goto	u1771
  5391  00EB9E  EFD5  F075         	goto	u1770
  5392  00EBA2                     u1771:
  5393  00EBA2  6A07               	clrf	??_port1_send3byte^(0+1280),c
  5394  00EBA4  2A07               	incf	??_port1_send3byte^(0+1280),f,c
  5395  00EBA6  EFD6  F075         	goto	u1778
  5396  00EBAA                     u1770:
  5397  00EBAA  6A07               	clrf	??_port1_send3byte^(0+1280),c
  5398  00EBAC                     u1778:
  5399  00EBAC  5007               	movf	??_port1_send3byte^(0+1280),w,c
  5400  00EBAE  0D02               	mullw	2
  5401  00EBB0  0E35               	movlw	low _port1_send1bit
  5402  00EBB2  24F3               	addwf	243,w,c
  5403  00EBB4  6ED9               	movwf	fsr2l,c
  5404  00EBB6  0E05               	movlw	high _port1_send1bit
  5405  00EBB8  20F4               	addwfc	prodh,w,c
  5406  00EBBA  6EDA               	movwf	fsr2h,c
  5407  00EBBC  D802               	call	u1788
  5408  00EBBE  EFEB  F075         	goto	u1789
  5409  00EBC2                     u1788:
  5410  00EBC2  0005               	push	
  5411  00EBC4  6EFA               	movwf	pclath,c
  5412  00EBC6  50DE               	movf	postinc2,w,c
  5413  00EBC8  6EFD               	movwf	tosl,c
  5414  00EBCA  50DE               	movf	postinc2,w,c
  5415  00EBCC  6EFE               	movwf	tosh,c
  5416  00EBCE  50F8               	movf	tblptru,w,c
  5417  00EBD0  6EFF               	movwf	tosu,c
  5418  00EBD2  50FA               	movf	pclath,w,c
  5419  00EBD4  0012               	return		;indir
  5420  00EBD6                     u1789:
  5421                           
  5422                           ;main.c: 152:     port1_send1bit[b.b.b2]();
  5423  00EBD6  B22E               	btfsc	_b^(0+1280),1,c
  5424  00EBD8  EFF0  F075         	goto	u1791
  5425  00EBDC  EFF4  F075         	goto	u1790
  5426  00EBE0                     u1791:
  5427  00EBE0  6A07               	clrf	??_port1_send3byte^(0+1280),c
  5428  00EBE2  2A07               	incf	??_port1_send3byte^(0+1280),f,c
  5429  00EBE4  EFF5  F075         	goto	u1798
  5430  00EBE8                     u1790:
  5431  00EBE8  6A07               	clrf	??_port1_send3byte^(0+1280),c
  5432  00EBEA                     u1798:
  5433  00EBEA  5007               	movf	??_port1_send3byte^(0+1280),w,c
  5434  00EBEC  0D02               	mullw	2
  5435  00EBEE  0E35               	movlw	low _port1_send1bit
  5436  00EBF0  24F3               	addwf	243,w,c
  5437  00EBF2  6ED9               	movwf	fsr2l,c
  5438  00EBF4  0E05               	movlw	high _port1_send1bit
  5439  00EBF6  20F4               	addwfc	prodh,w,c
  5440  00EBF8  6EDA               	movwf	fsr2h,c
  5441  00EBFA  D802               	call	u1808
  5442  00EBFC  EF0A  F076         	goto	u1809
  5443  00EC00                     u1808:
  5444  00EC00  0005               	push	
  5445  00EC02  6EFA               	movwf	pclath,c
  5446  00EC04  50DE               	movf	postinc2,w,c
  5447  00EC06  6EFD               	movwf	tosl,c
  5448  00EC08  50DE               	movf	postinc2,w,c
  5449  00EC0A  6EFE               	movwf	tosh,c
  5450  00EC0C  50F8               	movf	tblptru,w,c
  5451  00EC0E  6EFF               	movwf	tosu,c
  5452  00EC10  50FA               	movf	pclath,w,c
  5453  00EC12  0012               	return		;indir
  5454  00EC14                     u1809:
  5455                           
  5456                           ;main.c: 153:     port1_send1bit[b.b.b3]();
  5457  00EC14  B42E               	btfsc	_b^(0+1280),2,c
  5458  00EC16  EF0F  F076         	goto	u1811
  5459  00EC1A  EF13  F076         	goto	u1810
  5460  00EC1E                     u1811:
  5461  00EC1E  6A07               	clrf	??_port1_send3byte^(0+1280),c
  5462  00EC20  2A07               	incf	??_port1_send3byte^(0+1280),f,c
  5463  00EC22  EF14  F076         	goto	u1818
  5464  00EC26                     u1810:
  5465  00EC26  6A07               	clrf	??_port1_send3byte^(0+1280),c
  5466  00EC28                     u1818:
  5467  00EC28  5007               	movf	??_port1_send3byte^(0+1280),w,c
  5468  00EC2A  0D02               	mullw	2
  5469  00EC2C  0E35               	movlw	low _port1_send1bit
  5470  00EC2E  24F3               	addwf	243,w,c
  5471  00EC30  6ED9               	movwf	fsr2l,c
  5472  00EC32  0E05               	movlw	high _port1_send1bit
  5473  00EC34  20F4               	addwfc	prodh,w,c
  5474  00EC36  6EDA               	movwf	fsr2h,c
  5475  00EC38  D802               	call	u1828
  5476  00EC3A  EF29  F076         	goto	u1829
  5477  00EC3E                     u1828:
  5478  00EC3E  0005               	push	
  5479  00EC40  6EFA               	movwf	pclath,c
  5480  00EC42  50DE               	movf	postinc2,w,c
  5481  00EC44  6EFD               	movwf	tosl,c
  5482  00EC46  50DE               	movf	postinc2,w,c
  5483  00EC48  6EFE               	movwf	tosh,c
  5484  00EC4A  50F8               	movf	tblptru,w,c
  5485  00EC4C  6EFF               	movwf	tosu,c
  5486  00EC4E  50FA               	movf	pclath,w,c
  5487  00EC50  0012               	return		;indir
  5488  00EC52                     u1829:
  5489                           
  5490                           ;main.c: 154:     port1_send1bit[b.b.b4]();
  5491  00EC52  B62E               	btfsc	_b^(0+1280),3,c
  5492  00EC54  EF2E  F076         	goto	u1831
  5493  00EC58  EF32  F076         	goto	u1830
  5494  00EC5C                     u1831:
  5495  00EC5C  6A07               	clrf	??_port1_send3byte^(0+1280),c
  5496  00EC5E  2A07               	incf	??_port1_send3byte^(0+1280),f,c
  5497  00EC60  EF33  F076         	goto	u1838
  5498  00EC64                     u1830:
  5499  00EC64  6A07               	clrf	??_port1_send3byte^(0+1280),c
  5500  00EC66                     u1838:
  5501  00EC66  5007               	movf	??_port1_send3byte^(0+1280),w,c
  5502  00EC68  0D02               	mullw	2
  5503  00EC6A  0E35               	movlw	low _port1_send1bit
  5504  00EC6C  24F3               	addwf	243,w,c
  5505  00EC6E  6ED9               	movwf	fsr2l,c
  5506  00EC70  0E05               	movlw	high _port1_send1bit
  5507  00EC72  20F4               	addwfc	prodh,w,c
  5508  00EC74  6EDA               	movwf	fsr2h,c
  5509  00EC76  D802               	call	u1848
  5510  00EC78  EF48  F076         	goto	u1849
  5511  00EC7C                     u1848:
  5512  00EC7C  0005               	push	
  5513  00EC7E  6EFA               	movwf	pclath,c
  5514  00EC80  50DE               	movf	postinc2,w,c
  5515  00EC82  6EFD               	movwf	tosl,c
  5516  00EC84  50DE               	movf	postinc2,w,c
  5517  00EC86  6EFE               	movwf	tosh,c
  5518  00EC88  50F8               	movf	tblptru,w,c
  5519  00EC8A  6EFF               	movwf	tosu,c
  5520  00EC8C  50FA               	movf	pclath,w,c
  5521  00EC8E  0012               	return		;indir
  5522  00EC90                     u1849:
  5523                           
  5524                           ;main.c: 155:     port1_send1bit[b.b.b5]();
  5525  00EC90  B82E               	btfsc	_b^(0+1280),4,c
  5526  00EC92  EF4D  F076         	goto	u1851
  5527  00EC96  EF51  F076         	goto	u1850
  5528  00EC9A                     u1851:
  5529  00EC9A  6A07               	clrf	??_port1_send3byte^(0+1280),c
  5530  00EC9C  2A07               	incf	??_port1_send3byte^(0+1280),f,c
  5531  00EC9E  EF52  F076         	goto	u1858
  5532  00ECA2                     u1850:
  5533  00ECA2  6A07               	clrf	??_port1_send3byte^(0+1280),c
  5534  00ECA4                     u1858:
  5535  00ECA4  5007               	movf	??_port1_send3byte^(0+1280),w,c
  5536  00ECA6  0D02               	mullw	2
  5537  00ECA8  0E35               	movlw	low _port1_send1bit
  5538  00ECAA  24F3               	addwf	243,w,c
  5539  00ECAC  6ED9               	movwf	fsr2l,c
  5540  00ECAE  0E05               	movlw	high _port1_send1bit
  5541  00ECB0  20F4               	addwfc	prodh,w,c
  5542  00ECB2  6EDA               	movwf	fsr2h,c
  5543  00ECB4  D802               	call	u1868
  5544  00ECB6  EF67  F076         	goto	u1869
  5545  00ECBA                     u1868:
  5546  00ECBA  0005               	push	
  5547  00ECBC  6EFA               	movwf	pclath,c
  5548  00ECBE  50DE               	movf	postinc2,w,c
  5549  00ECC0  6EFD               	movwf	tosl,c
  5550  00ECC2  50DE               	movf	postinc2,w,c
  5551  00ECC4  6EFE               	movwf	tosh,c
  5552  00ECC6  50F8               	movf	tblptru,w,c
  5553  00ECC8  6EFF               	movwf	tosu,c
  5554  00ECCA  50FA               	movf	pclath,w,c
  5555  00ECCC  0012               	return		;indir
  5556  00ECCE                     u1869:
  5557                           
  5558                           ;main.c: 156:     port1_send1bit[b.b.b6]();
  5559  00ECCE  BA2E               	btfsc	_b^(0+1280),5,c
  5560  00ECD0  EF6C  F076         	goto	u1871
  5561  00ECD4  EF70  F076         	goto	u1870
  5562  00ECD8                     u1871:
  5563  00ECD8  6A07               	clrf	??_port1_send3byte^(0+1280),c
  5564  00ECDA  2A07               	incf	??_port1_send3byte^(0+1280),f,c
  5565  00ECDC  EF71  F076         	goto	u1878
  5566  00ECE0                     u1870:
  5567  00ECE0  6A07               	clrf	??_port1_send3byte^(0+1280),c
  5568  00ECE2                     u1878:
  5569  00ECE2  5007               	movf	??_port1_send3byte^(0+1280),w,c
  5570  00ECE4  0D02               	mullw	2
  5571  00ECE6  0E35               	movlw	low _port1_send1bit
  5572  00ECE8  24F3               	addwf	243,w,c
  5573  00ECEA  6ED9               	movwf	fsr2l,c
  5574  00ECEC  0E05               	movlw	high _port1_send1bit
  5575  00ECEE  20F4               	addwfc	prodh,w,c
  5576  00ECF0  6EDA               	movwf	fsr2h,c
  5577  00ECF2  D802               	call	u1888
  5578  00ECF4  EF86  F076         	goto	u1889
  5579  00ECF8                     u1888:
  5580  00ECF8  0005               	push	
  5581  00ECFA  6EFA               	movwf	pclath,c
  5582  00ECFC  50DE               	movf	postinc2,w,c
  5583  00ECFE  6EFD               	movwf	tosl,c
  5584  00ED00  50DE               	movf	postinc2,w,c
  5585  00ED02  6EFE               	movwf	tosh,c
  5586  00ED04  50F8               	movf	tblptru,w,c
  5587  00ED06  6EFF               	movwf	tosu,c
  5588  00ED08  50FA               	movf	pclath,w,c
  5589  00ED0A  0012               	return		;indir
  5590  00ED0C                     u1889:
  5591                           
  5592                           ;main.c: 157:     port1_send1bit[b.b.b7]();
  5593  00ED0C  BC2E               	btfsc	_b^(0+1280),6,c
  5594  00ED0E  EF8B  F076         	goto	u1891
  5595  00ED12  EF8F  F076         	goto	u1890
  5596  00ED16                     u1891:
  5597  00ED16  6A07               	clrf	??_port1_send3byte^(0+1280),c
  5598  00ED18  2A07               	incf	??_port1_send3byte^(0+1280),f,c
  5599  00ED1A  EF90  F076         	goto	u1898
  5600  00ED1E                     u1890:
  5601  00ED1E  6A07               	clrf	??_port1_send3byte^(0+1280),c
  5602  00ED20                     u1898:
  5603  00ED20  5007               	movf	??_port1_send3byte^(0+1280),w,c
  5604  00ED22  0D02               	mullw	2
  5605  00ED24  0E35               	movlw	low _port1_send1bit
  5606  00ED26  24F3               	addwf	243,w,c
  5607  00ED28  6ED9               	movwf	fsr2l,c
  5608  00ED2A  0E05               	movlw	high _port1_send1bit
  5609  00ED2C  20F4               	addwfc	prodh,w,c
  5610  00ED2E  6EDA               	movwf	fsr2h,c
  5611  00ED30  D802               	call	u1908
  5612  00ED32  EFA5  F076         	goto	u1909
  5613  00ED36                     u1908:
  5614  00ED36  0005               	push	
  5615  00ED38  6EFA               	movwf	pclath,c
  5616  00ED3A  50DE               	movf	postinc2,w,c
  5617  00ED3C  6EFD               	movwf	tosl,c
  5618  00ED3E  50DE               	movf	postinc2,w,c
  5619  00ED40  6EFE               	movwf	tosh,c
  5620  00ED42  50F8               	movf	tblptru,w,c
  5621  00ED44  6EFF               	movwf	tosu,c
  5622  00ED46  50FA               	movf	pclath,w,c
  5623  00ED48  0012               	return		;indir
  5624  00ED4A                     u1909:
  5625                           
  5626                           ;main.c: 158:     port1_send1bit[b.b.b8]();
  5627  00ED4A  BE2E               	btfsc	_b^(0+1280),7,c
  5628  00ED4C  EFAA  F076         	goto	u1911
  5629  00ED50  EFAE  F076         	goto	u1910
  5630  00ED54                     u1911:
  5631  00ED54  6A07               	clrf	??_port1_send3byte^(0+1280),c
  5632  00ED56  2A07               	incf	??_port1_send3byte^(0+1280),f,c
  5633  00ED58  EFAF  F076         	goto	u1918
  5634  00ED5C                     u1910:
  5635  00ED5C  6A07               	clrf	??_port1_send3byte^(0+1280),c
  5636  00ED5E                     u1918:
  5637  00ED5E  5007               	movf	??_port1_send3byte^(0+1280),w,c
  5638  00ED60  0D02               	mullw	2
  5639  00ED62  0E35               	movlw	low _port1_send1bit
  5640  00ED64  24F3               	addwf	243,w,c
  5641  00ED66  6ED9               	movwf	fsr2l,c
  5642  00ED68  0E05               	movlw	high _port1_send1bit
  5643  00ED6A  20F4               	addwfc	prodh,w,c
  5644  00ED6C  6EDA               	movwf	fsr2h,c
  5645  00ED6E  D802               	call	u1928
  5646  00ED70  EFC4  F076         	goto	u1929
  5647  00ED74                     u1928:
  5648  00ED74  0005               	push	
  5649  00ED76  6EFA               	movwf	pclath,c
  5650  00ED78  50DE               	movf	postinc2,w,c
  5651  00ED7A  6EFD               	movwf	tosl,c
  5652  00ED7C  50DE               	movf	postinc2,w,c
  5653  00ED7E  6EFE               	movwf	tosh,c
  5654  00ED80  50F8               	movf	tblptru,w,c
  5655  00ED82  6EFF               	movwf	tosu,c
  5656  00ED84  50FA               	movf	pclath,w,c
  5657  00ED86  0012               	return		;indir
  5658  00ED88                     u1929:
  5659  00ED88  0012               	return		;funcret
  5660  00ED8A                     __end_of_port1_send3byte:
  5661                           	callstack 0
  5662                           
  5663 ;; *************** function _port1_one *****************
  5664 ;; Defined at:
  5665 ;;		line 81 in file "main.c"
  5666 ;; Parameters:    Size  Location     Type
  5667 ;;		None
  5668 ;; Auto vars:     Size  Location     Type
  5669 ;;		None
  5670 ;; Return value:  Size  Location     Type
  5671 ;;                  2  133[None  ] int 
  5672 ;; Registers used:
  5673 ;;		None
  5674 ;; Tracked objects:
  5675 ;;		On entry : 0/0
  5676 ;;		On exit  : 0/0
  5677 ;;		Unchanged: 0/0
  5678 ;; Data sizes:     COMRAM   BANK5   BANK6   BANK7   BANK8   BANK9  BANK10  BANK11  BANK12  BANK13  BANK14  BANK15  BANK1
      +6  BANK17  BANK18  BANK19  BANK20  BANK21  BANK22  BANK23  BANK24  BANK25  BANK26  BANK27  BANK28  BANK29  BANK30  BANK3
      +1  BANK32  BANK33  BANK34  BANK35  BANK36
  5679 ;;      Params:         0       0       0       0       0       0       0       0       0       0       0       0       
      +0       0       0       0       0       0       0       0       0       0       0       0       0       0       0       
      +0       0       0       0       0       0
  5680 ;;      Locals:         0       0       0       0       0       0       0       0       0       0       0       0       
      +0       0       0       0       0       0       0       0       0       0       0       0       0       0       0       
      +0       0       0       0       0       0
  5681 ;;      Temps:          0       0       0       0       0       0       0       0       0       0       0       0       
      +0       0       0       0       0       0       0       0       0       0       0       0       0       0       0       
      +0       0       0       0       0       0
  5682 ;;      Totals:         0       0       0       0       0       0       0       0       0       0       0       0       
      +0       0       0       0       0       0       0       0       0       0       0       0       0       0       0       
      +0       0       0       0       0       0
  5683 ;;Total ram usage:        0 bytes
  5684 ;; Hardware stack levels used: 1
  5685 ;; This function calls:
  5686 ;;		Nothing
  5687 ;; This function is called by:
  5688 ;;		_port1_send3byte
  5689 ;; This function uses a non-reentrant model
  5690 ;;
  5691                           
  5692                           	psect	text12
  5693  00DE50                     __ptext12:
  5694                           	callstack 0
  5695  00DE50                     _port1_one:
  5696                           	callstack 124
  5697  00DE50                     
  5698                           ;main.c: 82:     LATCbits.LATC6 = 1;
  5699  00DE50  8CC0               	bsf	192,6,c	;volatile
  5700                           
  5701                           ;main.c: 83:     LATCbits.LATC6 = 1;
  5702  00DE52  8CC0               	bsf	192,6,c	;volatile
  5703                           
  5704                           ;main.c: 84:     LATCbits.LATC6 = 1;
  5705  00DE54  8CC0               	bsf	192,6,c	;volatile
  5706                           
  5707                           ;main.c: 85:     LATCbits.LATC6 = 1;
  5708  00DE56  8CC0               	bsf	192,6,c	;volatile
  5709                           
  5710                           ;main.c: 86:     LATCbits.LATC6 = 1;
  5711  00DE58  8CC0               	bsf	192,6,c	;volatile
  5712                           
  5713                           ;main.c: 87:     LATCbits.LATC6 = 1;
  5714  00DE5A  8CC0               	bsf	192,6,c	;volatile
  5715                           
  5716                           ;main.c: 88:     LATCbits.LATC6 = 1;
  5717  00DE5C  8CC0               	bsf	192,6,c	;volatile
  5718                           
  5719                           ;main.c: 89:     LATCbits.LATC6 = 0;
  5720  00DE5E  9CC0               	bcf	192,6,c	;volatile
  5721                           
  5722                           ;main.c: 90:     LATCbits.LATC6 = 0;
  5723  00DE60  9CC0               	bcf	192,6,c	;volatile
  5724                           
  5725                           ;main.c: 91:     LATCbits.LATC6 = 0;
  5726  00DE62  9CC0               	bcf	192,6,c	;volatile
  5727                           
  5728                           ;main.c: 92:     LATCbits.LATC6 = 0;
  5729  00DE64  9CC0               	bcf	192,6,c	;volatile
  5730                           
  5731                           ;main.c: 93:     LATCbits.LATC6 = 0;
  5732  00DE66  9CC0               	bcf	192,6,c	;volatile
  5733                           
  5734                           ;main.c: 94:     LATCbits.LATC6 = 0;
  5735  00DE68  9CC0               	bcf	192,6,c	;volatile
  5736                           
  5737                           ;main.c: 95:     LATCbits.LATC6 = 0;
  5738  00DE6A  9CC0               	bcf	192,6,c	;volatile
  5739  00DE6C  0012               	return		;funcret
  5740  00DE6E                     __end_of_port1_one:
  5741                           	callstack 0
  5742                           
  5743 ;; *************** function _port1_zero *****************
  5744 ;; Defined at:
  5745 ;;		line 68 in file "main.c"
  5746 ;; Parameters:    Size  Location     Type
  5747 ;;		None
  5748 ;; Auto vars:     Size  Location     Type
  5749 ;;		None
  5750 ;; Return value:  Size  Location     Type
  5751 ;;                  2  130[None  ] int 
  5752 ;; Registers used:
  5753 ;;		None
  5754 ;; Tracked objects:
  5755 ;;		On entry : 0/0
  5756 ;;		On exit  : 0/0
  5757 ;;		Unchanged: 0/0
  5758 ;; Data sizes:     COMRAM   BANK5   BANK6   BANK7   BANK8   BANK9  BANK10  BANK11  BANK12  BANK13  BANK14  BANK15  BANK1
      +6  BANK17  BANK18  BANK19  BANK20  BANK21  BANK22  BANK23  BANK24  BANK25  BANK26  BANK27  BANK28  BANK29  BANK30  BANK3
      +1  BANK32  BANK33  BANK34  BANK35  BANK36
  5759 ;;      Params:         0       0       0       0       0       0       0       0       0       0       0       0       
      +0       0       0       0       0       0       0       0       0       0       0       0       0       0       0       
      +0       0       0       0       0       0
  5760 ;;      Locals:         0       0       0       0       0       0       0       0       0       0       0       0       
      +0       0       0       0       0       0       0       0       0       0       0       0       0       0       0       
      +0       0       0       0       0       0
  5761 ;;      Temps:          0       0       0       0       0       0       0       0       0       0       0       0       
      +0       0       0       0       0       0       0       0       0       0       0       0       0       0       0       
      +0       0       0       0       0       0
  5762 ;;      Totals:         0       0       0       0       0       0       0       0       0       0       0       0       
      +0       0       0       0       0       0       0       0       0       0       0       0       0       0       0       
      +0       0       0       0       0       0
  5763 ;;Total ram usage:        0 bytes
  5764 ;; Hardware stack levels used: 1
  5765 ;; This function calls:
  5766 ;;		Nothing
  5767 ;; This function is called by:
  5768 ;;		_port1_send3byte
  5769 ;; This function uses a non-reentrant model
  5770 ;;
  5771                           
  5772                           	psect	text13
  5773  00DE24                     __ptext13:
  5774                           	callstack 0
  5775  00DE24                     _port1_zero:
  5776                           	callstack 124
  5777  00DE24                     
  5778                           ;main.c: 69:     LATCbits.LATC6 = 1;
  5779  00DE24  8CC0               	bsf	192,6,c	;volatile
  5780                           
  5781                           ;main.c: 70:     LATCbits.LATC6 = 1;
  5782  00DE26  8CC0               	bsf	192,6,c	;volatile
  5783                           
  5784                           ;main.c: 71:     LATCbits.LATC6 = 1;
  5785  00DE28  8CC0               	bsf	192,6,c	;volatile
  5786                           
  5787                           ;main.c: 72:     LATCbits.LATC6 = 0;
  5788  00DE2A  9CC0               	bcf	192,6,c	;volatile
  5789                           
  5790                           ;main.c: 73:     LATCbits.LATC6 = 0;
  5791  00DE2C  9CC0               	bcf	192,6,c	;volatile
  5792                           
  5793                           ;main.c: 74:     LATCbits.LATC6 = 0;
  5794  00DE2E  9CC0               	bcf	192,6,c	;volatile
  5795                           
  5796                           ;main.c: 75:     LATCbits.LATC6 = 0;
  5797  00DE30  9CC0               	bcf	192,6,c	;volatile
  5798                           
  5799                           ;main.c: 76:     LATCbits.LATC6 = 0;
  5800  00DE32  9CC0               	bcf	192,6,c	;volatile
  5801                           
  5802                           ;main.c: 77:     LATCbits.LATC6 = 0;
  5803  00DE34  9CC0               	bcf	192,6,c	;volatile
  5804                           
  5805                           ;main.c: 78:     LATCbits.LATC6 = 0;
  5806  00DE36  9CC0               	bcf	192,6,c	;volatile
  5807  00DE38  0012               	return		;funcret
  5808  00DE3A                     __end_of_port1_zero:
  5809                           	callstack 0
  5810  0000                     
  5811                           	psect	text14
  5812  000000                     __ptext14:
  5813                           	callstack 0
  5814  000000                     
  5815                           	psect	rparam
  5816  0000                     
  5817                           	psect	idloc
  5818                           
  5819                           ;Config register IDLOC0 @ 0x200000
  5820                           ;	unspecified, using default values
  5821  200000                     	org	2097152
  5822  200000  0FFF               	dw	4095
  5823                           
  5824                           ;Config register IDLOC1 @ 0x200002
  5825                           ;	unspecified, using default values
  5826  200002                     	org	2097154
  5827  200002  0FFF               	dw	4095
  5828                           
  5829                           ;Config register IDLOC2 @ 0x200004
  5830                           ;	unspecified, using default values
  5831  200004                     	org	2097156
  5832  200004  0FFF               	dw	4095
  5833                           
  5834                           ;Config register IDLOC3 @ 0x200006
  5835                           ;	unspecified, using default values
  5836  200006                     	org	2097158
  5837  200006  0FFF               	dw	4095
  5838                           
  5839                           ;Config register IDLOC4 @ 0x200008
  5840                           ;	unspecified, using default values
  5841  200008                     	org	2097160
  5842  200008  0FFF               	dw	4095
  5843                           
  5844                           ;Config register IDLOC5 @ 0x20000A
  5845                           ;	unspecified, using default values
  5846  20000A                     	org	2097162
  5847  20000A  0FFF               	dw	4095
  5848                           
  5849                           ;Config register IDLOC6 @ 0x20000C
  5850                           ;	unspecified, using default values
  5851  20000C                     	org	2097164
  5852  20000C  0FFF               	dw	4095
  5853                           
  5854                           ;Config register IDLOC7 @ 0x20000E
  5855                           ;	unspecified, using default values
  5856  20000E                     	org	2097166
  5857  20000E  0FFF               	dw	4095
  5858                           
  5859                           ;Config register IDLOC8 @ 0x200010
  5860                           ;	unspecified, using default values
  5861  200010                     	org	2097168
  5862  200010  0FFF               	dw	4095
  5863                           
  5864                           ;Config register IDLOC9 @ 0x200012
  5865                           ;	unspecified, using default values
  5866  200012                     	org	2097170
  5867  200012  0FFF               	dw	4095
  5868                           
  5869                           ;Config register IDLOC10 @ 0x200014
  5870                           ;	unspecified, using default values
  5871  200014                     	org	2097172
  5872  200014  0FFF               	dw	4095
  5873                           
  5874                           ;Config register IDLOC11 @ 0x200016
  5875                           ;	unspecified, using default values
  5876  200016                     	org	2097174
  5877  200016  0FFF               	dw	4095
  5878                           
  5879                           ;Config register IDLOC12 @ 0x200018
  5880                           ;	unspecified, using default values
  5881  200018                     	org	2097176
  5882  200018  0FFF               	dw	4095
  5883                           
  5884                           ;Config register IDLOC13 @ 0x20001A
  5885                           ;	unspecified, using default values
  5886  20001A                     	org	2097178
  5887  20001A  0FFF               	dw	4095
  5888                           
  5889                           ;Config register IDLOC14 @ 0x20001C
  5890                           ;	unspecified, using default values
  5891  20001C                     	org	2097180
  5892  20001C  0FFF               	dw	4095
  5893                           
  5894                           ;Config register IDLOC15 @ 0x20001E
  5895                           ;	unspecified, using default values
  5896  20001E                     	org	2097182
  5897  20001E  0FFF               	dw	4095
  5898                           
  5899                           ;Config register IDLOC16 @ 0x200020
  5900                           ;	unspecified, using default values
  5901  200020                     	org	2097184
  5902  200020  0FFF               	dw	4095
  5903                           
  5904                           ;Config register IDLOC17 @ 0x200022
  5905                           ;	unspecified, using default values
  5906  200022                     	org	2097186
  5907  200022  0FFF               	dw	4095
  5908                           
  5909                           ;Config register IDLOC18 @ 0x200024
  5910                           ;	unspecified, using default values
  5911  200024                     	org	2097188
  5912  200024  0FFF               	dw	4095
  5913                           
  5914                           ;Config register IDLOC19 @ 0x200026
  5915                           ;	unspecified, using default values
  5916  200026                     	org	2097190
  5917  200026  0FFF               	dw	4095
  5918                           
  5919                           ;Config register IDLOC20 @ 0x200028
  5920                           ;	unspecified, using default values
  5921  200028                     	org	2097192
  5922  200028  0FFF               	dw	4095
  5923                           
  5924                           ;Config register IDLOC21 @ 0x20002A
  5925                           ;	unspecified, using default values
  5926  20002A                     	org	2097194
  5927  20002A  0FFF               	dw	4095
  5928                           
  5929                           ;Config register IDLOC22 @ 0x20002C
  5930                           ;	unspecified, using default values
  5931  20002C                     	org	2097196
  5932  20002C  0FFF               	dw	4095
  5933                           
  5934                           ;Config register IDLOC23 @ 0x20002E
  5935                           ;	unspecified, using default values
  5936  20002E                     	org	2097198
  5937  20002E  0FFF               	dw	4095
  5938                           
  5939                           ;Config register IDLOC24 @ 0x200030
  5940                           ;	unspecified, using default values
  5941  200030                     	org	2097200
  5942  200030  0FFF               	dw	4095
  5943                           
  5944                           ;Config register IDLOC25 @ 0x200032
  5945                           ;	unspecified, using default values
  5946  200032                     	org	2097202
  5947  200032  0FFF               	dw	4095
  5948                           
  5949                           ;Config register IDLOC26 @ 0x200034
  5950                           ;	unspecified, using default values
  5951  200034                     	org	2097204
  5952  200034  0FFF               	dw	4095
  5953                           
  5954                           ;Config register IDLOC27 @ 0x200036
  5955                           ;	unspecified, using default values
  5956  200036                     	org	2097206
  5957  200036  0FFF               	dw	4095
  5958                           
  5959                           ;Config register IDLOC28 @ 0x200038
  5960                           ;	unspecified, using default values
  5961  200038                     	org	2097208
  5962  200038  0FFF               	dw	4095
  5963                           
  5964                           ;Config register IDLOC29 @ 0x20003A
  5965                           ;	unspecified, using default values
  5966  20003A                     	org	2097210
  5967  20003A  0FFF               	dw	4095
  5968                           
  5969                           ;Config register IDLOC30 @ 0x20003C
  5970                           ;	unspecified, using default values
  5971  20003C                     	org	2097212
  5972  20003C  0FFF               	dw	4095
  5973                           
  5974                           ;Config register IDLOC31 @ 0x20003E
  5975                           ;	unspecified, using default values
  5976  20003E                     	org	2097214
  5977  20003E  0FFF               	dw	4095
  5978                           
  5979                           	psect	config
  5980                           
  5981                           ;Config register CONFIG1 @ 0x300000
  5982                           ;	External Oscillator Selection
  5983                           ;	FEXTOSC = HS, HS (crystal oscillator) above 8 MHz
  5984                           ;	Reset Oscillator Selection
  5985                           ;	RSTOSC = EXTOSC_4PLL, EXTOSC with 4x PLL, with EXTOSC operating per FEXTOSC bits
  5986  300000                     	org	3145728
  5987  300000  AA                 	db	170
  5988                           
  5989                           ;Config register CONFIG2 @ 0x300001
  5990                           ;	Clock out Enable bit
  5991                           ;	CLKOUTEN = OFF, CLKOUT function is disabled
  5992                           ;	PRLOCKED One-Way Set Enable bit
  5993                           ;	PR1WAY = ON, PRLOCKED bit can be cleared and set only once
  5994                           ;	Clock Switch Enable bit
  5995                           ;	CSWEN = ON, Writing to NOSC and NDIV is allowed
  5996                           ;	JTAG Enable bit
  5997                           ;	JTAGEN = OFF, Disable JTAG Boundary Scan mode, JTAG pins revert to user functions
  5998                           ;	Fail-Safe Clock Monitor Enable bit
  5999                           ;	FCMEN = ON, Fail-Safe Clock Monitor enabled
  6000                           ;	Fail-Safe Clock Monitor -Primary XTAL Enable bit
  6001                           ;	FCMENP = ON, FSCM timer will set FSCMP bit and OSFIF interrupt on Primary XTAL failure
  6002                           ;	Fail-Safe Clock Monitor -Secondary XTAL Enable bit
  6003                           ;	FCMENS = ON, FSCM timer will set FSCMS bit and OSFIF interrupt on Secondary XTAL failu
      +                          re
  6004  300001                     	org	3145729
  6005  300001  EF                 	db	239
  6006                           
  6007                           ;Config register CONFIG3 @ 0x300002
  6008                           ;	MCLR Enable bit
  6009                           ;	MCLRE = EXTMCLR, If LVP = 0, MCLR pin is MCLR; If LVP = 1, RE3 pin function is MCLR
  6010                           ;	Power-up timer selection bits
  6011                           ;	PWRTS = PWRT_OFF, PWRT is disabled
  6012                           ;	Multi-vector enable bit
  6013                           ;	MVECEN = OFF, Interrupt contoller does not use vector table to prioritze interrupts
  6014                           ;	IVTLOCK bit One-way set enable bit
  6015                           ;	IVT1WAY = ON, IVTLOCKED bit can be cleared and set only once
  6016                           ;	Low Power BOR Enable bit
  6017                           ;	LPBOREN = OFF, Low-Power BOR disabled
  6018                           ;	Brown-out Reset Enable bits
  6019                           ;	BOREN = SBORDIS, Brown-out Reset enabled , SBOREN bit is ignored
  6020  300002                     	org	3145730
  6021  300002  F7                 	db	247
  6022                           
  6023                           ;Config register CONFIG4 @ 0x300003
  6024                           ;	Brown-out Reset Voltage Selection bits
  6025                           ;	BORV = VBOR_1P9, Brown-out Reset Voltage (VBOR) set to 1.9V
  6026                           ;	ZCD Disable bit
  6027                           ;	ZCD = OFF, ZCD module is disabled. ZCD can be enabled by setting the ZCDSEN bit of ZCD
      +                          CON
  6028                           ;	PPSLOCK bit One-Way Set Enable bit
  6029                           ;	PPS1WAY = ON, PPSLOCKED bit can be cleared and set only once; PPS registers remain loc
      +                          ked after one clear/set cycle
  6030                           ;	Stack Full/Underflow Reset Enable bit
  6031                           ;	STVREN = ON, Stack full/underflow will cause Reset
  6032                           ;	Low Voltage Programming Enable bit
  6033                           ;	LVP = ON, Low voltage programming enabled. MCLR/VPP pin function is MCLR. MCLRE config
      +                          uration bit is ignored
  6034                           ;	Extended Instruction Set Enable bit
  6035                           ;	XINST = OFF, Extended Instruction Set and Indexed Addressing Mode disabled
  6036  300003                     	org	3145731
  6037  300003  FF                 	db	255
  6038                           
  6039                           ;Config register CONFIG5 @ 0x300004
  6040                           ;	WDT Period selection bits
  6041                           ;	WDTCPS = WDTCPS_31, Divider ratio 1:65536; software control of WDTPS
  6042                           ;	WDT operating mode
  6043                           ;	WDTE = OFF, WDT Disabled; SWDTEN is ignored
  6044  300004                     	org	3145732
  6045  300004  9F                 	db	159
  6046                           
  6047                           ;Config register CONFIG6 @ 0x300005
  6048                           ;	WDT Window Select bits
  6049                           ;	WDTCWS = WDTCWS_7, window always open (100%); software control; keyed access not requi
      +                          red
  6050                           ;	WDT input clock selector
  6051                           ;	WDTCCS = SC, Software Control
  6052  300005                     	org	3145733
  6053  300005  FF                 	db	255
  6054                           
  6055                           ;Config register CONFIG7 @ 0x300006
  6056                           ;	Boot Block Size selection bits
  6057                           ;	BBSIZE = BBSIZE_512, Boot Block size is 512 words
  6058                           ;	Boot Block enable bit
  6059                           ;	BBEN = OFF, Boot block disabled
  6060                           ;	Storage Area Flash enable bit
  6061                           ;	SAFEN = OFF, SAF disabled
  6062  300006                     	org	3145734
  6063  300006  FF                 	db	255
  6064                           
  6065                           ;Config register CONFIG8 @ 0x300007
  6066                           ;	Boot Block Write Protection bit
  6067                           ;	WRTB = OFF, Boot Block not Write protected
  6068                           ;	Configuration Register Write Protection bit
  6069                           ;	WRTC = OFF, Configuration registers not Write protected
  6070                           ;	Data EEPROM Write Protection bit
  6071                           ;	WRTD = OFF, Data EEPROM not Write protected
  6072                           ;	SAF Write protection bit
  6073                           ;	WRTSAF = OFF, SAF not Write Protected
  6074                           ;	Application Block write protection bit
  6075                           ;	WRTAPP = OFF, Application Block not write protected
  6076  300007                     	org	3145735
  6077  300007  FF                 	db	255
  6078                           
  6079                           ;Config register CONFIG9 @ 0x300008
  6080                           ;	CRC on boot output pin selection
  6081                           ;	BOOTPINSEL = RC5, CRC on boot output pin is RC5
  6082                           ;	CRC on boot output pin enable bit
  6083                           ;	BPEN = OFF, CRC on boot output pin disabled
  6084                           ;	CRC on boot output pin open drain bit
  6085                           ;	ODCON = OFF, Pin drives both high-going and low-going signals
  6086  300008                     	org	3145736
  6087  300008  FF                 	db	255
  6088                           
  6089                           ;Config register CONFIG10 @ 0x300009
  6090                           ;	PFM and Data EEPROM Code Protection bit
  6091                           ;	CP = OFF, PFM and Data EEPROM code protection disabled
  6092  300009                     	org	3145737
  6093  300009  FF                 	db	255
  6094                           
  6095                           ;Config register CONFIG11 @ 0x30000A
  6096                           ;	CRC on boot scan enable for boot area
  6097                           ;	BOOTSCEN = OFF, CRC on boot will not include the boot area of program memory in its ca
      +                          lculation
  6098                           ;	CRC on boot Continue on Error for boot areas bit
  6099                           ;	BOOTCOE = HALT, CRC on boot will stop device if error is detected in boot areas
  6100                           ;	CRC on boot application code scan enable
  6101                           ;	APPSCEN = OFF, CRC on boot will not include the application area of program memory in 
      +                          its calculation
  6102                           ;	CRC on boot SAF area scan enable
  6103                           ;	SAFSCEN = OFF, CRC on boot will not include the SAF area of program memory in its calc
      +                          ulation
  6104                           ;	CRC on boot Data EEPROM scan enable
  6105                           ;	DATASCEN = OFF, CRC on boot will not include data EEPROM in its calculation
  6106                           ;	CRC on boot Config fuses scan enable
  6107                           ;	CFGSCEN = OFF, CRC on boot will not include the configuration fuses in its calculation
  6108                           ;	CRC on boot Continue on Error for non-boot areas bit
  6109                           ;	COE = HALT, CRC on boot will stop device if error is detected in non-boot areas
  6110                           ;	Boot on CRC Enable bit
  6111                           ;	BOOTPOR = OFF, CRC on boot will not run
  6112  30000A                     	org	3145738
  6113  30000A  FF                 	db	255
  6114                           
  6115                           ;Config register CONFIG12 @ 0x30000B
  6116                           ;	Boot Sector Polynomial for CRC on boot bits 31-24
  6117                           ;	BCRCPOLT = hFF, Bits 31:24 of BCRCPOL are 0xFF
  6118  30000B                     	org	3145739
  6119  30000B  FF                 	db	255
  6120                           
  6121                           ;Config register CONFIG13 @ 0x30000C
  6122                           ;	Boot Sector Polynomial for CRC on boot bits 23-16
  6123                           ;	BCRCPOLU = hFF, Bits 23:16 of BCRCPOL are 0xFF
  6124  30000C                     	org	3145740
  6125  30000C  FF                 	db	255
  6126                           
  6127                           ;Config register CONFIG14 @ 0x30000D
  6128                           ;	Boot Sector Polynomial for CRC on boot bits 15-8
  6129                           ;	BCRCPOLH = hFF, Bits 15:8 of BCRCPOL are 0xFF
  6130  30000D                     	org	3145741
  6131  30000D  FF                 	db	255
  6132                           
  6133                           ;Config register CONFIG15 @ 0x30000E
  6134                           ;	Boot Sector Polynomial for CRC on boot bits 7-0
  6135                           ;	BCRCPOLL = hFF, Bits 7:0 of BCRCPOL are 0xFF
  6136  30000E                     	org	3145742
  6137  30000E  FF                 	db	255
  6138                           
  6139                           ;Config register CONFIG16 @ 0x30000F
  6140                           ;	Boot Sector Seed for CRC on boot bits 31-24
  6141                           ;	BCRCSEEDT = hFF, Bits 31:24 of BCRCSEED are 0xFF
  6142  30000F                     	org	3145743
  6143  30000F  FF                 	db	255
  6144                           
  6145                           ;Config register CONFIG17 @ 0x300010
  6146                           ;	Boot Sector Seed for CRC on boot bits 23-16
  6147                           ;	BCRCSEEDU = hFF, Bits 23:16 of BCRCSEED are 0xFF
  6148  300010                     	org	3145744
  6149  300010  FF                 	db	255
  6150                           
  6151                           ;Config register CONFIG18 @ 0x300011
  6152                           ;	Boot Sector Seed for CRC on boot bits 15-8
  6153                           ;	BCRCSEEDH = hFF, Bits 15:8 of BCRCSEED are 0xFF
  6154  300011                     	org	3145745
  6155  300011  FF                 	db	255
  6156                           
  6157                           ;Config register CONFIG19 @ 0x300012
  6158                           ;	Boot Sector Seed for CRC on boot bits 7-0
  6159                           ;	BCRCSEEDL = hFF, Bits 7:0 of BCRCSEED are 0xFF
  6160  300012                     	org	3145746
  6161  300012  FF                 	db	255
  6162                           
  6163                           ;Config register CONFIG20 @ 0x300013
  6164                           ;	unspecified, using default values
  6165                           ;	Boot Sector Expected Result for CRC on boot bits 31-24
  6166                           ;	BCRCEREST = 0xFF, unprogrammed default
  6167  300013                     	org	3145747
  6168  300013  FF                 	db	255
  6169                           
  6170                           ;Config register CONFIG21 @ 0x300014
  6171                           ;	unspecified, using default values
  6172                           ;	Boot Sector Expected Result for CRC on boot bits 23-16
  6173                           ;	BCRCERESU = 0xFF, unprogrammed default
  6174  300014                     	org	3145748
  6175  300014  FF                 	db	255
  6176                           
  6177                           ;Config register CONFIG22 @ 0x300015
  6178                           ;	unspecified, using default values
  6179                           ;	Boot Sector Expected Result for CRC on boot bits 15-8
  6180                           ;	BCRCERESH = 0xFF, unprogrammed default
  6181  300015                     	org	3145749
  6182  300015  FF                 	db	255
  6183                           
  6184                           ;Config register CONFIG23 @ 0x300016
  6185                           ;	unspecified, using default values
  6186                           ;	Boot Sector Expected Result for CRC on boot bits 7-0
  6187                           ;	BCRCERESL = 0xFF, unprogrammed default
  6188  300016                     	org	3145750
  6189  300016  FF                 	db	255
  6190                           
  6191                           ;Config register CONFIG24 @ 0x300017
  6192                           ;	Non-Boot Sector Polynomial for CRC on boot bits 31-24
  6193                           ;	CRCPOLT = hFF, Bits 31:24 of CRCPOL are 0xFF
  6194  300017                     	org	3145751
  6195  300017  FF                 	db	255
  6196                           
  6197                           ;Config register CONFIG25 @ 0x300018
  6198                           ;	Non-Boot Sector Polynomial for CRC on boot bits 23-16
  6199                           ;	CRCPOLU = hFF, Bits 23:16 of CRCPOL are 0xFF
  6200  300018                     	org	3145752
  6201  300018  FF                 	db	255
  6202                           
  6203                           ;Config register CONFIG26 @ 0x300019
  6204                           ;	Non-Boot Sector Polynomial for CRC on boot bits 15-8
  6205                           ;	CRCPOLH = hFF, Bits 15:8 of CRCPOL are 0xFF
  6206  300019                     	org	3145753
  6207  300019  FF                 	db	255
  6208                           
  6209                           ;Config register CONFIG27 @ 0x30001A
  6210                           ;	Non-Boot Sector Polynomial for CRC on boot bits 7-0
  6211                           ;	CRCPOLL = hFF, Bits 7:0 of CRCPOL are 0xFF
  6212  30001A                     	org	3145754
  6213  30001A  FF                 	db	255
  6214                           
  6215                           ;Config register CONFIG28 @ 0x30001B
  6216                           ;	Non-Boot Sector Seed for CRC on boot bits 31-24
  6217                           ;	CRCSEEDT = hFF, Bits 31:24 of CRCSEED are 0xFF
  6218  30001B                     	org	3145755
  6219  30001B  FF                 	db	255
  6220                           
  6221                           ;Config register CONFIG29 @ 0x30001C
  6222                           ;	Non-Boot Sector Seed for CRC on boot bits 23-16
  6223                           ;	CRCSEEDU = hFF, Bits 23:16 of CRCSEED are 0xFF
  6224  30001C                     	org	3145756
  6225  30001C  FF                 	db	255
  6226                           
  6227                           ;Config register CONFIG30 @ 0x30001D
  6228                           ;	Non-Boot Sector Seed for CRC on boot bits 15-8
  6229                           ;	CRCSEEDH = hFF, Bits 15:8 of CRCSEED are 0xFF
  6230  30001D                     	org	3145757
  6231  30001D  FF                 	db	255
  6232                           
  6233                           ;Config register CONFIG31 @ 0x30001E
  6234                           ;	Non-Boot Sector Seed for CRC on boot bits 7-0
  6235                           ;	CRCSEEDL = hFF, Bits 7:0 of CRCSEED are 0xFF
  6236  30001E                     	org	3145758
  6237  30001E  FF                 	db	255
  6238                           
  6239                           ;Config register CONFIG32 @ 0x30001F
  6240                           ;	unspecified, using default values
  6241                           ;	Non-Boot Sector Expected Result for CRC on boot bits 31-24
  6242                           ;	CRCEREST = 0xFF, unprogrammed default
  6243  30001F                     	org	3145759
  6244  30001F  FF                 	db	255
  6245                           
  6246                           ;Config register CONFIG33 @ 0x300020
  6247                           ;	unspecified, using default values
  6248                           ;	Non-Boot Sector Expected Result for CRC on boot bits 23-16
  6249                           ;	CRCERESU = 0xFF, unprogrammed default
  6250  300020                     	org	3145760
  6251  300020  FF                 	db	255
  6252                           
  6253                           ;Config register CONFIG34 @ 0x300021
  6254                           ;	unspecified, using default values
  6255                           ;	Non-Boot Sector Expected Result for CRC on boot bits 15-8
  6256                           ;	CRCERESH = 0xFF, unprogrammed default
  6257  300021                     	org	3145761
  6258  300021  FF                 	db	255
  6259                           
  6260                           ;Config register CONFIG35 @ 0x300022
  6261                           ;	unspecified, using default values
  6262                           ;	Non-Boot Sector Expected Result for CRC on boot bits 7-0
  6263                           ;	CRCERESL = 0xFF, unprogrammed default
  6264  300022                     	org	3145762
  6265  300022  FF                 	db	255
  6266                           
  6267                           ; Padding undefined space
  6268  300023                     	org	3145763
  6269  300023  FF                 	db	255
  6270                           tosu	equ	0x4FF
  6271                           tosh	equ	0x4FE
  6272                           tosl	equ	0x4FD
  6273                           stkptr	equ	0x4FC
  6274                           pclatu	equ	0x4FB
  6275                           pclath	equ	0x4FA
  6276                           pcl	equ	0x4F9
  6277                           tblptru	equ	0x4F8
  6278                           tblptrh	equ	0x4F7
  6279                           tblptrl	equ	0x4F6
  6280                           tablat	equ	0x4F5
  6281                           prodh	equ	0x4F4
  6282                           prodl	equ	0x4F3
  6283                           indf0	equ	0x4EF
  6284                           postinc0	equ	0x4EE
  6285                           postdec0	equ	0x4ED
  6286                           preinc0	equ	0x4EC
  6287                           plusw0	equ	0x4EB
  6288                           fsr0h	equ	0x4EA
  6289                           fsr0l	equ	0x4E9
  6290                           wreg	equ	0x4E8
  6291                           indf1	equ	0x4E7
  6292                           postinc1	equ	0x4E6
  6293                           postdec1	equ	0x4E5
  6294                           preinc1	equ	0x4E4
  6295                           plusw1	equ	0x4E3
  6296                           fsr1h	equ	0x4E2
  6297                           fsr1l	equ	0x4E1
  6298                           bsr	equ	0x4E0
  6299                           indf2	equ	0x4DF
  6300                           postinc2	equ	0x4DE
  6301                           postdec2	equ	0x4DD
  6302                           preinc2	equ	0x4DC
  6303                           plusw2	equ	0x4DB
  6304                           fsr2h	equ	0x4DA
  6305                           fsr2l	equ	0x4D9
  6306                           status	equ	0x4D8

Data Sizes:
    Strings     0
    Constant    0
    Data        8
    BSS         969
    Persistent  0
    Stack       0

Auto Spaces:
    Space          Size  Autos    Used
    COMRAM           95     39      56
    BANK5           160      0       0
    BANK6           256      0       0
    BANK7           256      0       0
    BANK8           256      0       0
    BANK9           256      0       0
    BANK10          256      0       0
    BANK11          256      0       0
    BANK12          256      0       0
    BANK13          256      0       0
    BANK14          256      0       0
    BANK15          256      0       0
    BANK16          256      0       0
    BANK17          256      0       0
    BANK18          256      0       0
    BANK19          256      0       0
    BANK20          256      0       0
    BANK21          256      0       0
    BANK22          256      0       0
    BANK23          256      0       0
    BANK24          256      0       0
    BANK25          256      0       0
    BANK26          256      0       0
    BANK27          256      0       0
    BANK28          256      0       0
    BANK29          256      0       0
    BANK30          256      0       0
    BANK31          256      0       0
    BANK32          256      0       0
    BANK33          256      0       0
    BANK34          256      0       0
    BANK35          256      0       0
    BANK36          256      0       0

Pointer List with Targets:

    port2_send1bit	PTR FTN()int [2] size(2) Largest target is 2
		 -> port2_one(), port2_zero(), 

    port1_send1bit	PTR FTN()int [2] size(2) Largest target is 2
		 -> port1_one(), port1_zero(), 


Critical Paths under _main in COMRAM

    _main->_Gaming
    _Red->_port1_send3byte
    _Red->_port2_send3byte
    _Gaming->_port1_send3byte
    _Gaming->_port2_send3byte
    _Blue->_port1_send3byte
    _Blue->_port2_send3byte

Critical Paths under _main in BANK5

    None.

Critical Paths under _main in BANK6

    None.

Critical Paths under _main in BANK7

    None.

Critical Paths under _main in BANK8

    None.

Critical Paths under _main in BANK9

    None.

Critical Paths under _main in BANK10

    None.

Critical Paths under _main in BANK11

    None.

Critical Paths under _main in BANK12

    None.

Critical Paths under _main in BANK13

    None.

Critical Paths under _main in BANK14

    None.

Critical Paths under _main in BANK15

    None.

Critical Paths under _main in BANK16

    None.

Critical Paths under _main in BANK17

    None.

Critical Paths under _main in BANK18

    None.

Critical Paths under _main in BANK19

    None.

Critical Paths under _main in BANK20

    None.

Critical Paths under _main in BANK21

    None.

Critical Paths under _main in BANK22

    None.

Critical Paths under _main in BANK23

    None.

Critical Paths under _main in BANK24

    None.

Critical Paths under _main in BANK25

    None.

Critical Paths under _main in BANK26

    None.

Critical Paths under _main in BANK27

    None.

Critical Paths under _main in BANK28

    None.

Critical Paths under _main in BANK29

    None.

Critical Paths under _main in BANK30

    None.

Critical Paths under _main in BANK31

    None.

Critical Paths under _main in BANK32

    None.

Critical Paths under _main in BANK33

    None.

Critical Paths under _main in BANK34

    None.

Critical Paths under _main in BANK35

    None.

Critical Paths under _main in BANK36

    None.

Call Graph Tables:

 ---------------------------------------------------------------------------------
 (Depth) Function   	        Calls       Base Space   Used Autos Params    Refs
 ---------------------------------------------------------------------------------
 (0) _main                                                 2     2      0  101272
                                             37 COMRAM     2     2      0
                               _Blue
                             _Gaming
                                _Red
                  _SYSTEM_Initialize
 ---------------------------------------------------------------------------------
 (1) _SYSTEM_Initialize                                    0     0      0       0
              _OSCILLATOR_Initialize
             _PIN_MANAGER_Initialize
                     _PMD_Initialize
 ---------------------------------------------------------------------------------
 (2) _PMD_Initialize                                       0     0      0       0
 ---------------------------------------------------------------------------------
 (2) _PIN_MANAGER_Initialize                               0     0      0       0
 ---------------------------------------------------------------------------------
 (2) _OSCILLATOR_Initialize                                0     0      0       0
 ---------------------------------------------------------------------------------
 (1) _Red                                                 10    10      0   33604
                                              7 COMRAM    10    10      0
                    _port1_send3byte
                    _port2_send3byte
 ---------------------------------------------------------------------------------
 (1) _Gaming                                              30    30      0   34064
                                              7 COMRAM    30    30      0
                    _port1_send3byte
                    _port2_send3byte
 ---------------------------------------------------------------------------------
 (1) _Blue                                                10    10      0   33604
                                              7 COMRAM    10    10      0
                    _port1_send3byte
                    _port2_send3byte
 ---------------------------------------------------------------------------------
 (2) _port2_send3byte                                      7     1      6   16710
                                              0 COMRAM     7     1      6
                          _port2_one *
                         _port2_zero *
 ---------------------------------------------------------------------------------
 (3) _port2_zero                                           0     0      0       0
 ---------------------------------------------------------------------------------
 (3) _port2_one                                            0     0      0       0
 ---------------------------------------------------------------------------------
 (2) _port1_send3byte                                      7     1      6   16710
                                              0 COMRAM     7     1      6
                          _port1_one *
                         _port1_zero *
 ---------------------------------------------------------------------------------
 (3) _port1_zero                                           0     0      0       0
 ---------------------------------------------------------------------------------
 (3) _port1_one                                            0     0      0       0
 ---------------------------------------------------------------------------------
 Estimated maximum stack depth 3
 ---------------------------------------------------------------------------------

 Call Graph Graphs:

 _main (ROOT)
   _Blue
     _port1_send3byte
       _port1_one *
       _port1_zero *
     _port2_send3byte
       _port2_one *
       _port2_zero *
   _Gaming
     _port1_send3byte
     _port2_send3byte
   _Red
     _port1_send3byte
     _port2_send3byte
   _SYSTEM_Initialize
     _OSCILLATOR_Initialize
     _PIN_MANAGER_Initialize
     _PMD_Initialize

 Address spaces:
Name               Size   Autos  Total    Cost      Usage
BIGRAM            1FFF      0     3C0      69       11.7%
BITBIGSFR_1        900      0       0      68        0.0%
EEDATA             400      0       0       0        0.0%
BITBIGSFRllllhh    34C      0       0      79        0.0%
BITBANK36          100      0       0      66        0.0%
BANK36             100      0       0      67        0.0%
BITBANK35          100      0       0      64        0.0%
BANK35             100      0       0      65        0.0%
BITBANK34          100      0       0      62        0.0%
BANK34             100      0       0      63        0.0%
BITBANK33          100      0       0      60        0.0%
BANK33             100      0       0      61        0.0%
BITBANK32          100      0       0      58        0.0%
BANK32             100      0       0      59        0.0%
BITBANK31          100      0       0      56        0.0%
BANK31             100      0       0      57        0.0%
BITBANK30          100      0       0      54        0.0%
BANK30             100      0       0      55        0.0%
BITBANK29          100      0       0      52        0.0%
BANK29             100      0       0      53        0.0%
BITBANK28          100      0       0      50        0.0%
BANK28             100      0       0      51        0.0%
BITBANK27          100      0       0      48        0.0%
BANK27             100      0       0      49        0.0%
BITBANK26          100      0       0      46        0.0%
BANK26             100      0       0      47        0.0%
BITBANK25          100      0       0      44        0.0%
BANK25             100      0       0      45        0.0%
BITBANK24          100      0       0      42        0.0%
BANK24             100      0       0      43        0.0%
BITBANK23          100      0       0      40        0.0%
BANK23             100      0       0      41        0.0%
BITBANK22          100      0       0      38        0.0%
BANK22             100      0       0      39        0.0%
BITBANK21          100      0       0      36        0.0%
BANK21             100      0       0      37        0.0%
BITBANK20          100      0       0      34        0.0%
BANK20             100      0       0      35        0.0%
BITBANK19          100      0       0      32        0.0%
BANK19             100      0       0      33        0.0%
BITBANK18          100      0       0      30        0.0%
BANK18             100      0       0      31        0.0%
BITBANK17          100      0       0      28        0.0%
BANK17             100      0       0      29        0.0%
BITBANK16          100      0       0      26        0.0%
BANK16             100      0       0      27        0.0%
BITBANK15          100      0       0      24        0.0%
BANK15             100      0       0      25        0.0%
BITBANK14          100      0       0      22        0.0%
BANK14             100      0       0      23        0.0%
BITBANK13          100      0       0      20        0.0%
BANK13             100      0       0      21        0.0%
BITBANK12          100      0       0      18        0.0%
BANK12             100      0       0      19        0.0%
BITBANK11          100      0       0      16        0.0%
BANK11             100      0       0      17        0.0%
BITBANK10          100      0       0      14        0.0%
BANK10             100      0       0      15        0.0%
BITBANK9           100      0       0      12        0.0%
BANK9              100      0       0      13        0.0%
BITBANK8           100      0       0      10        0.0%
BANK8              100      0       0      11        0.0%
BITBANK7           100      0       0       8        0.0%
BANK7              100      0       0       9        0.0%
BITBANK6           100      0       0       6        0.0%
BANK6              100      0       0       7        0.0%
BITBANK5            A0      0       0       4        0.0%
BANK5               A0      0       0       5        0.0%
BITBIGSFRlhhh       99      0       0      74        0.0%
BITBIGSFRllllll     60      0       0      82        0.0%
BITCOMRAM           5F      0       0       0        0.0%
COMRAM              5F     27      38       1       58.9%
BITBIGSFRlllllh     44      0       0      81        0.0%
BITBIGSFRhhh        31      0       0      70        0.0%
BITBIGSFRlhl         C      0       0      76        0.0%
BITBIGSFRhll         5      0       0      73        0.0%
BITBIGSFRlllh        3      0       0      78        0.0%
BITBIGSFRllh         3      0       0      77        0.0%
BITBIGSFRhhl         3      0       0      71        0.0%
BITBIGSFRlhhl        2      0       0      75        0.0%
BITBIGSFRllllhl      1      0       0      80        0.0%
BITBIGSFRhlh         1      0       0      72        0.0%
BIGSFR_1             0      0       0     200        0.0%
BIGSFR               0      0       0     200        0.0%
BITSFR_14            0      0       0     200        0.0%
SFR_14               0      0       0     200        0.0%
BITSFR_13            0      0       0     200        0.0%
SFR_13               0      0       0     200        0.0%
BITSFR_12            0      0       0     200        0.0%
SFR_12               0      0       0     200        0.0%
BITSFR_11            0      0       0     200        0.0%
SFR_11               0      0       0     200        0.0%
BITSFR_10            0      0       0     200        0.0%
SFR_10               0      0       0     200        0.0%
BITSFR_9             0      0       0     200        0.0%
SFR_9                0      0       0     200        0.0%
BITSFR_8             0      0       0     200        0.0%
SFR_8                0      0       0     200        0.0%
BITSFR_7             0      0       0     200        0.0%
SFR_7                0      0       0     200        0.0%
BITSFR_6             0      0       0     200        0.0%
SFR_6                0      0       0     200        0.0%
BITSFR_5             0      0       0     200        0.0%
SFR_5                0      0       0     200        0.0%
BITSFR_4             0      0       0     200        0.0%
SFR_4                0      0       0     200        0.0%
BITSFR_3             0      0       0     200        0.0%
SFR_3                0      0       0     200        0.0%
BITSFR_2             0      0       0     200        0.0%
SFR_2                0      0       0     200        0.0%
BITSFR_1             0      0       0     200        0.0%
SFR_1                0      0       0     200        0.0%
BITSFR               0      0       0     200        0.0%
SFR                  0      0       0     200        0.0%
STACK                0      0       0       2        0.0%
NULL                 0      0       0       0        0.0%
ABS                  0      0      38      83        0.0%
DATA                 0      0     3F8       3        0.0%
CODE                 0      0       0       0        0.0%


Microchip Technology PIC18 Macro Assembler V2.36 build 20220127204148 
Symbol Table                                                                                   Fri Jan 19 00:27:56 2024

                             _b 052E                               _g 052F                               _r 0530  
                            l51 DF70                              l93 DE22                              l96 DEA2  
                            l99 DEB0                              u10 DEB0                              u11 DEAC  
               _port1_send3byte E7AC                             l102 DED8                             l131 DE38  
                           l140 DE8A                             l213 FFFA                             l134 DE6C  
                           l150 F366                             l137 DE4E                             l153 E41E  
                           l147 ED88                             l182 E41C                             l166 E7AA  
                           l169 E090                             l910 DE3A                             l912 DE6E  
                           l920 DF38                             l906 DE24                             l930 DF64  
                           l922 DF3A                             l914 DF24                             l908 DE50  
                           l940 DE8C                             l932 DF66                             l924 DF3E  
                           l916 DF34                             l934 DF68                             l926 DF60  
                           l918 DF36                             l950 DE16                             l936 DF6A  
                           l928 DF62                             l938 DEB2                             _RGB 2140  
                           _Red E41E                             prod 0004F3                             tosl 0004FD  
                           wreg 0004E8                 _port2_send3byte ED8A                    fp__port1_one 0000  
                          ?_Red 0501                    fp__port2_one 0000                            l1302 E458  
                          l1320 E5CC                            l1304 E4EE                            l1410 E402  
                          l1322 E5E2                            l1314 E516                            l1306 E4F2  
                          l1404 E34C                            l1500 F976                            l1420 F420  
                          l1412 F368                            l1332 E61C                            l1316 E5AC  
                          l1308 E50E                            l1406 E3E2                            l1510 FA4A  
                          l1502 F992                            l1430 F448                            l1422 F424  
                          l1350 E790                            l1334 E6B2                            l1326 E614  
                          l1318 E5B0                            l1408 E3E6                            l1352 E090  
                          l1512 FA4E                            l1432 F4F8                            l1424 F440  
                          l1344 E6DA                            l1336 E6B6                            l1600 DF7A  
                          l1290 ED96                            l1362 E0CA                            l1530 FB60  
                          l1522 FA88                            l1514 FA6A                            l1450 F606  
                          l1434 F4FC                            l1418 F370                            l1346 E770  
                          l1338 E6D2                            l1610 DFCE                            l1602 DF7C  
                          l1284 E7AC                            l1380 E23E                            l1364 E160  
                          l1356 E0C2                            l1540 FC38                            l1524 FB38  
                          l1516 FA80                            l1508 F99A                            l1460 F6C2  
                          l1444 F536                            l1436 F518                            l1348 E774  
                          l1292 E41E                            l1620 E040                            l1612 DFEC  
                          l1604 DF7E                            l1286 E7B8                            l1382 E254  
                          l1374 E188                            l1366 E164                            l1550 FD26  
                          l1542 FC4E                            l1534 FB80                            l1526 FB3C  
                          l1470 F6FC                            l1462 F6DE                            l1446 F5E6  
                          l1438 F52E                            l1622 E06E                            l1614 DFF0  
                          l1606 DF9C                            l1288 ED8A                            l1392 E28E  
                          l1376 E21E                            l1368 E180                            l1560 FD56  
                          l1544 FC56                            l1536 FC30                            l1528 FB58  
                          l1472 F7AC                            l1464 F6F4                            l1456 F60E  
                          l1448 F5EA                            l1296 E450                            l1616 E01E  
                          l1608 DFA0                            l1394 E324                            l1386 E286  
                          l1378 E222                            l1570 FE2C                            l1562 FE06  
                          l1554 FD2E                            l1490 F8BA                            l1482 F7D4  
                          l1474 F7B0                            l1458 F6BE                            l1618 E03C  
                          l1396 E328                            l1580 FF04                            l1556 FD36  
                          l1548 FC76                            l1484 F884                            l1476 F7CC  
                          l1398 E344                            l1582 FF0C                            l1574 FE4C  
                          l1566 FE0E                            l1486 F888                            l1592 FFE4  
                          l1576 FEFC                            l1568 FE24                            l1496 F8C2  
                          l1488 F8A4                            l1586 FF2C                            l1498 F972  
                          l1594 DF72                            l1588 FFDC                            l1596 DF76  
                          l1598 DF78                            u2010 EEA0                            u2011 EE98  
                          u2110 EFD6                            u2030 EEDE                            u2111 EFCE  
                          u2031 EED6                            u2008 EE7A                            u2009 EE8E  
                          u2210 F10C                            u2130 F014                            u2050 EF1C  
                          u2018 EEA2                            u2211 F104                            u2131 F00C  
                          u2051 EF14                            u2108 EFB0                            u2028 EEB8  
                          u2109 EFC4                            u2029 EECC                            _LATA 0004BE  
                          u1510 E884                            u2310 F242                            u2230 F14A  
                          u2150 F052                            u2118 EFD8                            u2070 EF5A  
                          u2038 EEE0                            _LATB 0004BF                            u1511 E87C  
                          u2311 F23A                            u2231 F142                            u2151 F04A  
                          u2071 EF52                            _LATC 0004C0                            u2208 F0E6  
                          u2128 EFEE                            u2048 EEF6                            u2209 F0FA  
                          u2129 F002                            u2049 EF0A                            u1610 E9BA  
                          u1530 E8C2                            u1450 E7CA                            u2330 F280  
                          u2250 F188                            u2218 F10E                            u2170 F090  
                          u2138 F016                            u2090 EF98                            u2058 EF1E  
                          u2410 E42E                            u1611 E9B2                            u1531 E8BA  
                          u1451 E7C2                            u2331 F278                            u2251 F180  
                          u2171 F088                            u2091 EF90                            u2411 E428  
                          u1508 E85E                            u2308 F21C                            u2228 F124  
                          u2148 F02C                            u2068 EF34                            u2500 E790  
                          u2420 E430                            u1509 E872                            u2309 F230  
                          u2229 F138                            u2149 F040                            u2069 EF48  
                          u2501 E78C                            u1710 EAF0                            u1630 E9F8  
                          u1550 E900                            u1518 E886                            u1470 E808  
                          u2350 F2BE                            u2318 F244                            u2270 F1C6  
                          u2238 F14C                            u2190 F0CE                            u2158 F054  
                          u2078 EF5C                            u2510 E0A0                            u2430 E44C  
                          u1711 EAE8                            u1631 E9F0                            u1551 E8F8  
                          u1471 E800                            u2351 F2B6                            u2271 F1BE  
                          u2191 F0C6                            u2511 E09A                            u2431 E448  
                          u1608 E994                            u1528 E89C                            u2408 F352  
                          u2328 F25A                            u2248 F162                            u2168 F06A  
                          u2088 EF72                            u2600 E402                            u2520 E0A2  
                          u2440 E50E                            u1609 E9A8                            u1529 E8B0  
                          u2409 F366                            u2329 F26E                            u2249 F176  
                          u2169 F07E                            u2089 EF86                            u2601 E3FE  
                          u2441 E50A                            u1810 EC26                            u1730 EB2E  
                          u1650 EA36                            u1618 E9BC                            u1570 E93E  
                          u1538 E8C4                            u1490 E846                            u1458 E7CC  
                          u2370 F2FC                            u2338 F282                            u2290 F204  
                          u2258 F18A                            u2178 F092                            u2098 EF9A  
                          u2530 E0BE                            u2610 F440                            u2450 E5CC  
                          u1811 EC1E                            u1731 EB26                            u1651 EA2E  
                          u1571 E936                            u1491 E83E                            u2371 F2F4  
                          u2291 F1FC                            u2531 E0BA                            u2611 F43C  
                          u2451 E5C8                            u1708 EACA                            u1628 E9D2  
                          u1548 E8DA                            u1468 E7E2                            u2348 F298  
                          u2268 F1A0                            u2188 F0A8                            u2540 E180  
                          u2700 FB7C                            u2620 F518                            u2460 E5F2  
                          u1709 EADE                            u1629 E9E6                            u1549 E8EE  
                          u1469 E7F6                            u2349 F2AC                            u2269 F1B4  
                          u2189 F0BC                            u2541 E17C                            u2701 FB78  
                          u2621 F514                            u2461 E5EC                            u1910 ED5C  
                          u1830 EC64                            u1750 EB6C                            u1718 EAF2  
                          u1670 EA74                            u1638 E9FA                            u1590 E97C  
                          u1558 E902                            u1478 E80A                            u2390 F33A  
                          u2358 F2C0                            u2278 F1C8                            u2198 F0D0  
                          u2550 E23E                            u2710 FC72                            u2630 F606  
                          u2470 E5F4                            u1911 ED54                            u1831 EC5C  
                          u1751 EB64                            u1671 EA6C                            u1591 E974  
                          u2391 F332                            u2551 E23A                            u2711 FC6E  
                          u2631 F602                            u1808 EC00                            u1728 EB08  
                          u1648 EA10                            u1568 E918                            u1488 E820  
                          u2368 F2D6                            u2288 F1DE                            u2560 E264  
                          u2720 FD52                            u2640 F6DE                            u2480 E610  
                          u2800 E000                            u1809 EC14                            u1729 EB1C  
                          u1649 EA24                            u1569 E92C                            u1489 E834  
                          u2369 F2EA                            u2289 F1F2                            u2561 E25E  
                          u2721 FD4E                            u2641 F6DA                            u2481 E60C  
                          u2801 DFFA                            u1850 ECA2                            u1818 EC28  
                          u1770 EBAA                            u1738 EB30                            u1690 EAB2  
                          u1658 EA38                            u1578 E940                            u1498 E848  
                          u2378 F2FE                            u2298 F206                            u1930 EDA8  
                          u2570 E266                            u2730 FE48                            u2650 F7CC  
                          u2490 E6D2                            u2810 E002                            u1851 EC9A  
                          u1771 EBA2                            u1691 EAAA                            u1931 EDA0  
                          u2731 FE44                            u2651 F7C8                            u2491 E6CE  
                          u1908 ED36                            u1828 EC3E                            u1748 EB46  
                          u1668 EA4E                            u1588 E956                            u2388 F314  
                          u2580 E282                            u2740 FF28                            u2660 F8A4  
                          u2820 E01E                            u1909 ED4A                            u1829 EC52  
                          u1749 EB5A                            u1669 EA62                            u1589 E96A  
                          u2389 F328                            u2581 E27E                            u2741 FF24  
                          u2661 F8A0                            u2821 E01A                            u1918 ED5E  
                          u1870 ECE0                            u1838 EC66                            u1790 EBE8  
                          u1758 EB6E                            u1678 EA76                            u1598 E97E  
                          u2398 F33C                            u1950 EDE6                            u2590 E344  
                          u2670 F992                            u2830 E030                            u2750 DF90  
                          u1871 ECD8                            u1791 EBE0                            u1951 EDDE  
                          u2591 E340                            u2671 F98E                            u2831 E028  
                          u2751 DF88                            u1928 ED74                            u1848 EC7C  
                          u1768 EB84                            u1688 EA8C                            u2680 FA6A  
                          u2840 E050                            u2760 DFB0                            u1929 ED88  
                          u1849 EC90                            u1769 EB98                            u1689 EAA0  
                          u2681 FA66                            u2841 E04A                            u2761 DFAA  
                          u1890 ED1E                            u1858 ECA4                            u1778 EBAC  
                          u1698 EAB4                            u1970 EE24                            u1938 EDAA  
                          u2690 FB58                            u2850 E052                            u2770 DFB2  
                          u1891 ED16                            u1971 EE1C                            u2691 FB54  
                          u2907 F522                            u1868 ECBA                            u1788 EBC2  
                          u1948 EDC0                            u2860 E06E                            u2780 DFCE  
                          _PMD0 000060                            u1869 ECCE                            u1789 EBD6  
                          u1949 EDD4                            u2917 F6E8                            u2861 E06A  
                          u2781 DFCA                            _PMD1 000061                            u1878 ECE2  
                          u1798 EBEA                            u1990 EE62                            u1958 EDE8  
                          u2870 E080                            u2838 E032                            u2790 DFE0  
                          u2758 DF92                            _PMD2 000062                            u1991 EE5A  
                          u2927 F8AE                            u2871 E078                            u2791 DFD8  
                          _PMD3 000063                            u1888 ECF8                            u1968 EDFE  
                          _PMD4 000064                            u1889 ED0C                            u1969 EE12  
                          u2937 FA74                            _MODE 052C                            _PMD5 000065  
                          u1898 ED20                            u1978 EE26                            _PMD6 000066  
                          u2947 FC42                            _PMD7 000067                            u1988 EE3C  
                          _PMD8 000068                            u1989 EE50                            u2957 FE18  
                          u1998 EE64                            u2878 E082                            u2798 DFE2  
                          u2967 FFEE                            u2887 E5D6                            u2977 E248  
                          u2897 E79A                            u2987 E40C                            _MOVE 052A  
                          _PLLR 000590                            Red@i 050A                            _WPUA 000401  
                          _WPUB 000409                            _WPUC 000411                            _WPUE 000421  
                          _Blue E090                            _main DF72                            fsr1h 0004E2  
                          fsr1l 0004E1                            fsr2l 0004D9                            prodl 0004F3  
                          start FFFC                    ___param_bank 000000                           ??_Red 0508  
                         ?_Blue 0501   __end_of_OSCILLATOR_Initialize DEB2                   fp__port1_zero 0000  
                 fp__port2_zero 0000                           ?_main 0501                           Blue@i 050A  
                         _OSCEN 0000B3                           _TRISA 0004C6                           _TRISB 0004C7  
                         _TRISC 0004C8                           _TRISE 0004CA                           pclath 0004FA  
                         tablat 0004F5                           status 0004D8                    __end_of_Blue E41E  
       __end_of_port1_send3byte ED8A                 __initialization DEDA                    __end_of_main E090  
                        ??_Blue 0508         __end_of_port2_send3byte F368                          ??_main 0526  
                 __activetblptr 000002                          _ANSELA 000400                          _ANSELB 000408  
                        _ANSELC 000410                          _ODCONA 000402                          _ODCONB 00040A  
                        _ODCONC 000412                          _INLVLA 000404                          _INLVLB 00040C  
                        _INLVLC 000414                          _INLVLE 000424                          _OSCFRQ 0000B1  
                        _Gaming F368                          clear_0 DF02                          clear_1 DF14  
                        isa$std 000001                  _PMD_Initialize DEB2                port1_send3byte@B 0505  
              port1_send3byte@G 0503                port1_send3byte@R 0501                    __pdataCOMRAM 0531  
                        tblptrh 0004F7                          tblptrl 0004F6                          tblptru 0004F8  
             _SYSTEM_Initialize DE16                      __accesstop 0560         __end_of__initialization DF1A  
            ?_SYSTEM_Initialize 0501                   ___rparam_used 000001                ?_port1_send3byte 0501  
                __pcstackCOMRAM 0501             ??_SYSTEM_Initialize 0501          __end_of_PMD_Initialize DEDA  
              ?_port2_send3byte 0501                port2_send3byte@B 0505                port2_send3byte@G 0503  
              port2_send3byte@R 0501       __end_of_SYSTEM_Initialize DE24                         ?_Gaming 0501  
               ?_PMD_Initialize 0501                         Gaming@i 050A                         _OSCCON1 0000AD  
                       _OSCCON3 0000AF                         _OSCTUNE 0000B0                         _SLRCONA 000403  
                       _SLRCONB 00040B                         _SLRCONC 000413                         __Hparam 0000  
                       __Lparam 0000                         __pcinit DEDA                         __ramtop 2500  
                       __ptext0 DF72                         __ptext1 DE16                         __ptext2 DEB2  
                       __ptext3 DF24                         __ptext4 DE8C                         __ptext5 E41E  
                       __ptext6 F368                         __ptext7 E090                         __ptext8 ED8A  
                       __ptext9 DE6E           _OSCILLATOR_Initialize DE8C        ??_PIN_MANAGER_Initialize 0501  
          end_of_initialization DF1A                       Blue@i_286 050C                       Blue@i_287 050E  
                     Blue@i_288 0510                   __Lmediumconst 0000               __end_of_port1_one DE6E  
             __end_of_port2_one DE8C                      _port1_zero DE24                      _port2_zero DE3A  
                       postdec1 0004E5                         postinc0 0004EE                         postinc2 0004DE  
                     _PORTAbits 0004CE                       _TRISAbits 0004C6                       _TRISCbits 0004C8  
                _port1_send1bit 0535                  _port2_send1bit 0531                  __end_of_Gaming FFFC  
                 __pidataCOMRAM DE0E          ?_OSCILLATOR_Initialize 0501             start_initialization DEDA  
                   __end_of_Red E7AC                        ??_Gaming 0508                ??_PMD_Initialize 0501  
                   ?_port1_zero 0501                     ?_port2_zero 0501                     __pbssBIGRAM 2140  
                   __pbssCOMRAM 0528          _PIN_MANAGER_Initialize DF24                        _LATCbits 0004C0  
                     _port1_one DE50                       _port2_one DE6E                        Red@i_280 050C  
                      Red@i_282 050E                        Red@i_283 0510               ??_port1_send3byte 0507  
                     copy_data0 DEEE               ??_port2_send3byte 0507                        __Hrparam 0000  
                      __Lrparam 0000                      ?_port1_one 0501                      ?_port2_one 0501  
       ??_OSCILLATOR_Initialize 0501                     Gaming@i_300 051E                     Gaming@i_301 0520  
                   Gaming@i_302 0522                     Gaming@i_303 0524                     Gaming@i_291 050C  
                   Gaming@i_292 050E                     Gaming@i_293 0510                     Gaming@i_294 0512  
                   Gaming@i_295 0514                     Gaming@i_296 0516                     Gaming@i_297 0518  
                   Gaming@i_298 051A                     Gaming@i_299 051C                        __ptext10 DE3A  
                      __ptext11 E7AC                        __ptext12 DE50                        __ptext13 DE24  
                      __ptext14 0000                        _nanntoka 0528                    ??_port1_zero 0501  
                      isa$xinst 000000                    ??_port2_zero 0501              __end_of_port1_zero DE3A  
            __end_of_port2_zero DE50         ?_PIN_MANAGER_Initialize 0501                     ??_port1_one 0501  
                   ??_port2_one 0501  __end_of_PIN_MANAGER_Initialize DF72  
